; Listing generated by Microsoft (R) Optimizing Compiler Version 19.25.28614.0 

	TITLE	E:\skull\TouchGFX\Projects\iioss\stm32f429_touchgfx_iios\Src\generated\images\src\BitmapDatabase.cpp
	.686P
	.XMM
	include listing.inc
	.model	flat

INCLUDELIB MSVCRTD
INCLUDELIB OLDNAMES

EXTRN	?_blue_buttons_round_icon_button@@3QBEB:BYTE	; _blue_buttons_round_icon_button
EXTRN	?_blue_buttons_round_icon_button_pressed@@3QBEB:BYTE ; _blue_buttons_round_icon_button_pressed
EXTRN	?_blue_clocks_backgrounds_clock_standard_background@@3QBEB:BYTE ; _blue_clocks_backgrounds_clock_standard_background
EXTRN	?_blue_clocks_hands_clock_standard_hour_hand@@3QBEB:BYTE ; _blue_clocks_hands_clock_standard_hour_hand
EXTRN	?_blue_clocks_hands_clock_standard_minute_hand@@3QBEB:BYTE ; _blue_clocks_hands_clock_standard_minute_hand
EXTRN	?_blue_clocks_hands_clock_standard_second_hand@@3QBEB:BYTE ; _blue_clocks_hands_clock_standard_second_hand
EXTRN	?_dark_buttons_round_icon_button@@3QBEB:BYTE	; _dark_buttons_round_icon_button
msvcjmc	SEGMENT
__A74F5D0F_Types@hpp DB 01H
__47A90C35_vcruntime_new@h DB 01H
__950C6985_Bitmap@hpp DB 01H
__AB47D07E_Unicode@hpp DB 01H
__8B4C2B69_Font@hpp DB 01H
__2001A13F_TextureMapTypes@hpp DB 01H
__7242C389_ctype@h DB 01H
__90A1F774_basetsd@h DB 01H
__367CC694_corecrt_memcpy_s@h DB 01H
__35D7DDB3_corecrt_memory@h DB 01H
__DC9673E3_corecrt_wstring@h DB 01H
__A29A7DFB_string@h DB 01H
__3C23D660_guiddef@h DB 01H
__AF541008_winnt@h DB 01H
__0D001789_processthreadsapi@h DB 01H
__F972325D_memoryapi@h DB 01H
__76CD430D_winerror@h DB 01H
__737D49DB_winbase@h DB 01H
__1B9502AC_winuser@h DB 01H
__376EBCA0_winioctl@h DB 01H
__24E9E95F_stdlib@h DB 01H
__2CCBBE23_propidl@h DB 01H
__AD360DAF_oleauto@h DB 01H
__0396F1A5_stralign@h DB 01H
__F66CEB67_corecrt_stdio_config@h DB 01H
__101834BA_corecrt_wstdio@h DB 01H
__AD6A91B7_stdio@h DB 01H
__B86198EA_LCD@hpp DB 01H
__403AA56A_Event@hpp DB 01H
__3FC710CC_ClickEvent@hpp DB 01H
__5C081AA2_DragEvent@hpp DB 01H
__8D383DD1_GestureEvent@hpp DB 01H
__1231FE37_UIEventListener@hpp DB 01H
__A6C4B53A_Gestures@hpp DB 01H
__C8C5ABC7_Atomic@hpp DB 01H
__7690392A_DMA@hpp DB 01H
__0142CAFD_FrameBufferAllocator@hpp DB 01H
__33F018F5_Transition@hpp DB 01H
__BB3356C0_Application@hpp DB 01H
__8D6329E3_Callback@hpp DB 01H
__E4852470_Drawable@hpp DB 01H
__FDC45896_TouchController@hpp DB 01H
__99706CA3_ButtonController@hpp DB 01H
__5A878F54_MCUInstrumentation@hpp DB 01H
__3E625794_HAL@hpp DB 01H
__437DC4B6_LCD24bpp@hpp DB 01H
__ECDF3E20_BitmapDatabase@cpp DB 01H
msvcjmc	ENDS
CONST	SEGMENT
?bitmap_database@@3QBUBitmapData@Bitmap@touchgfx@@B DD FLAT:?_blue_buttons_round_icon_button@@3QBEB ; bitmap_database
	DD	00H
	DW	03cH
	DW	03cH
	DW	0dH
	DW	0bH
	DW	022H
	DW	04024H
	DD	FLAT:?_blue_buttons_round_icon_button_pressed@@3QBEB
	DD	00H
	DW	03cH
	DW	03cH
	DW	0dH
	DW	0bH
	DW	022H
	DW	04024H
	DD	FLAT:?_blue_clocks_backgrounds_clock_standard_background@@3QBEB
	DD	00H
	DW	0e9H
	DW	0f3H
	DW	02bH
	DW	02aH
	DW	093H
	DW	04095H
	DD	FLAT:?_blue_clocks_hands_clock_standard_hour_hand@@3QBEB
	DD	00H
	DW	0fH
	DW	03dH
	DW	03H
	DW	06H
	DW	09H
	DW	0402bH
	DD	FLAT:?_blue_clocks_hands_clock_standard_minute_hand@@3QBEB
	DD	00H
	DW	0fH
	DW	04dH
	DW	03H
	DW	06H
	DW	09H
	DW	0403bH
	DD	FLAT:?_blue_clocks_hands_clock_standard_second_hand@@3QBEB
	DD	00H
	DW	07H
	DW	056H
	DW	02H
	DW	02H
	DW	03H
	DW	04051H
	DD	FLAT:?_dark_buttons_round_icon_button@@3QBEB
	DD	00H
	DW	03cH
	DW	03cH
	DW	0dH
	DW	0bH
	DW	022H
	DW	04024H
CONST	ENDS
PUBLIC	?getInstance@BitmapDatabase@@YAPBUBitmapData@Bitmap@touchgfx@@XZ ; BitmapDatabase::getInstance
PUBLIC	?getInstanceSize@BitmapDatabase@@YAGXZ		; BitmapDatabase::getInstanceSize
PUBLIC	__JustMyCode_Default
EXTRN	@__CheckForDebuggerJustMyCode@4:PROC
EXTRN	__RTC_CheckEsp:PROC
EXTRN	__RTC_InitBase:PROC
EXTRN	__RTC_Shutdown:PROC
;	COMDAT rtc$TMZ
rtc$TMZ	SEGMENT
__RTC_Shutdown.rtc$TMZ DD FLAT:__RTC_Shutdown
rtc$TMZ	ENDS
;	COMDAT rtc$IMZ
rtc$IMZ	SEGMENT
__RTC_InitBase.rtc$IMZ DD FLAT:__RTC_InitBase
rtc$IMZ	ENDS
; Function compile flags: /Odt
;	COMDAT __JustMyCode_Default
_TEXT	SEGMENT
__JustMyCode_Default PROC				; COMDAT
	push	ebp
	mov	ebp, esp
	pop	ebp
	ret	0
__JustMyCode_Default ENDP
_TEXT	ENDS
; Function compile flags: /Odtp /RTCsu /ZI
;	COMDAT ?getInstanceSize@BitmapDatabase@@YAGXZ
_TEXT	SEGMENT
?getInstanceSize@BitmapDatabase@@YAGXZ PROC		; BitmapDatabase::getInstanceSize, COMDAT
; File E:\skull\TouchGFX\Projects\iioss\stm32f429_touchgfx_iios\Src\generated\images\src\BitmapDatabase.cpp
; Line 36
	push	ebp
	mov	ebp, esp
	sub	esp, 192				; 000000c0H
	push	ebx
	push	esi
	push	edi
	lea	edi, DWORD PTR [ebp-192]
	mov	ecx, 48					; 00000030H
	mov	eax, -858993460				; ccccccccH
	rep stosd
	mov	ecx, OFFSET __ECDF3E20_BitmapDatabase@cpp
	call	@__CheckForDebuggerJustMyCode@4
; Line 37
	mov	eax, 7
; Line 38
	pop	edi
	pop	esi
	pop	ebx
	add	esp, 192				; 000000c0H
	cmp	ebp, esp
	call	__RTC_CheckEsp
	mov	esp, ebp
	pop	ebp
	ret	0
?getInstanceSize@BitmapDatabase@@YAGXZ ENDP		; BitmapDatabase::getInstanceSize
_TEXT	ENDS
; Function compile flags: /Odtp /RTCsu /ZI
;	COMDAT ?getInstance@BitmapDatabase@@YAPBUBitmapData@Bitmap@touchgfx@@XZ
_TEXT	SEGMENT
?getInstance@BitmapDatabase@@YAPBUBitmapData@Bitmap@touchgfx@@XZ PROC ; BitmapDatabase::getInstance, COMDAT
; File E:\skull\TouchGFX\Projects\iioss\stm32f429_touchgfx_iios\Src\generated\images\src\BitmapDatabase.cpp
; Line 31
	push	ebp
	mov	ebp, esp
	sub	esp, 192				; 000000c0H
	push	ebx
	push	esi
	push	edi
	lea	edi, DWORD PTR [ebp-192]
	mov	ecx, 48					; 00000030H
	mov	eax, -858993460				; ccccccccH
	rep stosd
	mov	ecx, OFFSET __ECDF3E20_BitmapDatabase@cpp
	call	@__CheckForDebuggerJustMyCode@4
; Line 32
	mov	eax, OFFSET ?bitmap_database@@3QBUBitmapData@Bitmap@touchgfx@@B
; Line 33
	pop	edi
	pop	esi
	pop	ebx
	add	esp, 192				; 000000c0H
	cmp	ebp, esp
	call	__RTC_CheckEsp
	mov	esp, ebp
	pop	ebp
	ret	0
?getInstance@BitmapDatabase@@YAPBUBitmapData@Bitmap@touchgfx@@XZ ENDP ; BitmapDatabase::getInstance
_TEXT	ENDS
END
