; Listing generated by Microsoft (R) Optimizing Compiler Version 19.25.28614.0 

	TITLE	E:\skull\TouchGFX\Projects\iioss\stm32f429_touchgfx_iios\Src\generated\images\src\__designer\Blue_Buttons_Round_icon_button_pressed.cpp
	.686P
	.XMM
	include listing.inc
	.model	flat

INCLUDELIB MSVCRTD
INCLUDELIB OLDNAMES

PUBLIC	?_blue_buttons_round_icon_button_pressed@@3QBEB	; _blue_buttons_round_icon_button_pressed
CONST	SEGMENT
?_blue_buttons_round_icon_button_pressed@@3QBEB DB 00H	; _blue_buttons_round_icon_button_pressed
	DB	00H
	DB	00H
	DB	00H
	DB	00H
	DB	00H
	DB	00H
	DB	00H
	DB	00H
	DB	00H
	DB	00H
	DB	00H
	DB	00H
	DB	00H
	DB	00H
	DB	00H
	DB	00H
	DB	00H
	DB	00H
	DB	00H
	DB	00H
	DB	00H
	DB	00H
	DB	00H
	DB	00H
	DB	00H
	DB	00H
	DB	00H
	DB	00H
	DB	00H
	DB	00H
	DB	00H
	DB	00H
	DB	00H
	DB	00H
	DB	00H
	DB	00H
	DB	00H
	DB	00H
	DB	00H
	DB	00H
	DB	00H
	DB	00H
	DB	00H
	DB	00H
	DB	00H
	DB	00H
	DB	00H
	DB	00H
	DB	00H
	DB	00H
	DB	00H
	DB	00H
	DB	00H
	DB	00H
	DB	00H
	DB	00H
	DB	00H
	DB	00H
	DB	00H
	DB	00H
	DB	00H
	DB	00H
	DB	00H
	DB	00H
	DB	00H
	DB	00H
	DB	00H
	DB	00H
	DB	00H
	DB	00H
	DB	00H
	DB	00H
	DB	00H
	DB	00H
	DB	00H
	DB	00H
	DB	00H
	DB	00H
	DB	00H
	DB	00H
	DB	00H
	DB	00H
	DB	00H
	DB	00H
	DB	00H
	DB	00H
	DB	00H
	DB	00H
	DB	00H
	DB	00H
	DB	00H
	DB	00H
	DB	00H
	DB	00H
	DB	00H
	DB	00H
	DB	00H
	DB	00H
	DB	00H
	DB	00H
	DB	00H
	DB	00H
	DB	00H
	DB	00H
	DB	00H
	DB	00H
	DB	00H
	DB	00H
	DB	00H
	DB	00H
	DB	00H
	DB	00H
	DB	00H
	DB	00H
	DB	00H
	DB	00H
	DB	00H
	DB	00H
	DB	00H
	DB	00H
	DB	00H
	DB	00H
	DB	00H
	DB	00H
	DB	00H
	DB	00H
	DB	00H
	DB	00H
	DB	00H
	DB	00H
	DB	00H
	DB	00H
	DB	00H
	DB	00H
	DB	00H
	DB	00H
	DB	00H
	DB	00H
	DB	00H
	DB	00H
	DB	00H
	DB	00H
	DB	00H
	DB	00H
	DB	00H
	DB	00H
	DB	00H
	DB	00H
	DB	00H
	DB	00H
	DB	00H
	DB	00H
	DB	00H
	DB	00H
	DB	00H
	DB	00H
	DB	00H
	DB	00H
	DB	00H
	DB	00H
	DB	00H
	DB	00H
	DB	00H
	DB	00H
	DB	00H
	DB	00H
	DB	00H
	DB	00H
	DB	00H
	DB	00H
	DB	00H
	DB	00H
	DB	00H
	DB	00H
	DB	00H
	DB	00H
	DB	00H
	DB	00H
	DB	00H
	DB	00H
	DB	00H
	DB	00H
	DB	00H
	DB	00H
	DB	00H
	DB	00H
	DB	00H
	DB	00H
	DB	00H
	DB	00H
	DB	00H
	DB	00H
	DB	00H
	DB	00H
	DB	00H
	DB	00H
	DB	00H
	DB	00H
	DB	00H
	DB	00H
	DB	00H
	DB	00H
	DB	00H
	DB	00H
	DB	00H
	DB	00H
	DB	00H
	DB	00H
	DB	00H
	DB	00H
	DB	00H
	DB	00H
	DB	00H
	DB	00H
	DB	00H
	DB	00H
	DB	00H
	DB	00H
	DB	00H
	DB	00H
	DB	00H
	DB	00H
	DB	00H
	DB	00H
	DB	00H
	DB	00H
	DB	00H
	DB	00H
	DB	00H
	DB	00H
	DB	00H
	DB	00H
	DB	00H
	DB	00H
	DB	00H
	DB	00H
	DB	00H
	DB	00H
	DB	00H
	DB	00H
	DB	00H
	DB	00H
	DB	00H
	DB	00H
	DB	00H
	DB	00H
	DB	00H
	DB	00H
	DB	00H
	DB	00H
	DB	00H
	DB	00H
	DB	00H
	DB	00H
	DB	00H
	DB	00H
	DB	00H
	DB	00H
	DB	00H
	DB	00H
	DB	00H
	DB	00H
	DB	00H
	DB	00H
	DB	00H
	DB	00H
	DB	00H
	DB	00H
	DB	00H
	DB	00H
	DB	00H
	DB	00H
	DB	00H
	DB	00H
	DB	00H
	DB	00H
	DB	00H
	DB	00H
	DB	00H
	DB	00H
	DB	00H
	DB	00H
	DB	00H
	DB	00H
	DB	00H
	DB	00H
	DB	00H
	DB	00H
	DB	00H
	DB	00H
	DB	00H
	DB	00H
	DB	00H
	DB	00H
	DB	00H
	DB	00H
	DB	00H
	DB	00H
	DB	00H
	DB	00H
	DB	00H
	DB	00H
	DB	00H
	DB	00H
	DB	00H
	DB	00H
	DB	00H
	DB	00H
	DB	00H
	DB	00H
	DB	00H
	DB	00H
	DB	00H
	DB	00H
	DB	00H
	DB	00H
	DB	00H
	DB	00H
	DB	00H
	DB	00H
	DB	00H
	DB	00H
	DB	00H
	DB	00H
	DB	00H
	DB	00H
	DB	00H
	DB	00H
	DB	00H
	DB	00H
	DB	00H
	DB	00H
	DB	00H
	DB	00H
	DB	00H
	DB	00H
	DB	00H
	DB	00H
	DB	00H
	DB	00H
	DB	00H
	DB	00H
	DB	00H
	DB	00H
	DB	00H
	DB	00H
	DB	00H
	DB	00H
	DB	00H
	DB	00H
	DB	00H
	DB	00H
	DB	00H
	DB	00H
	DB	00H
	DB	00H
	DB	00H
	DB	00H
	DB	00H
	DB	00H
	DB	00H
	DB	00H
	DB	00H
	DB	00H
	DB	00H
	DB	00H
	DB	00H
	DB	00H
	DB	00H
	DB	00H
	DB	00H
	DB	00H
	DB	00H
	DB	00H
	DB	00H
	DB	00H
	DB	00H
	DB	00H
	DB	00H
	DB	00H
	DB	00H
	DB	00H
	DB	00H
	DB	00H
	DB	00H
	DB	00H
	DB	00H
	DB	00H
	DB	00H
	DB	00H
	DB	00H
	DB	00H
	DB	00H
	DB	00H
	DB	00H
	DB	00H
	DB	00H
	DB	00H
	DB	00H
	DB	00H
	DB	00H
	DB	00H
	DB	00H
	DB	00H
	DB	00H
	DB	00H
	DB	00H
	DB	00H
	DB	00H
	DB	00H
	DB	00H
	DB	00H
	DB	00H
	DB	00H
	DB	00H
	DB	00H
	DB	00H
	DB	00H
	DB	00H
	DB	00H
	DB	00H
	DB	00H
	DB	00H
	DB	00H
	DB	00H
	DB	00H
	DB	00H
	DB	00H
	DB	00H
	DB	00H
	DB	00H
	DB	00H
	DB	00H
	DB	00H
	DB	00H
	DB	00H
	DB	00H
	DB	00H
	DB	00H
	DB	00H
	DB	00H
	DB	00H
	DB	00H
	DB	00H
	DB	00H
	DB	00H
	DB	00H
	DB	00H
	DB	00H
	DB	00H
	DB	00H
	DB	00H
	DB	00H
	DB	00H
	DB	00H
	DB	00H
	DB	00H
	DB	00H
	DB	00H
	DB	00H
	DB	00H
	DB	00H
	DB	00H
	DB	00H
	DB	00H
	DB	00H
	DB	00H
	DB	00H
	DB	00H
	DB	00H
	DB	00H
	DB	00H
	DB	00H
	DB	00H
	DB	00H
	DB	00H
	DB	00H
	DB	00H
	DB	00H
	DB	00H
	DB	00H
	DB	00H
	DB	00H
	DB	00H
	DB	00H
	DB	00H
	DB	00H
	DB	00H
	DB	00H
	DB	00H
	DB	00H
	DB	00H
	DB	00H
	DB	00H
	DB	00H
	DB	00H
	DB	00H
	DB	00H
	DB	00H
	DB	00H
	DB	00H
	DB	00H
	DB	00H
	DB	00H
	DB	00H
	DB	00H
	DB	00H
	DB	00H
	DB	00H
	DB	00H
	DB	00H
	DB	00H
	DB	00H
	DB	00H
	DB	00H
	DB	00H
	DB	00H
	DB	00H
	DB	00H
	DB	00H
	DB	00H
	DB	00H
	DB	00H
	DB	00H
	DB	00H
	DB	00H
	DB	00H
	DB	00H
	DB	00H
	DB	00H
	DB	00H
	DB	00H
	DB	00H
	DB	00H
	DB	00H
	DB	00H
	DB	00H
	DB	00H
	DB	00H
	DB	00H
	DB	00H
	DB	00H
	DB	00H
	DB	00H
	DB	00H
	DB	00H
	DB	00H
	DB	00H
	DB	00H
	DB	00H
	DB	00H
	DB	00H
	DB	00H
	DB	00H
	DB	00H
	DB	00H
	DB	00H
	DB	00H
	DB	00H
	DB	00H
	DB	00H
	DB	00H
	DB	00H
	DB	00H
	DB	00H
	DB	00H
	DB	00H
	DB	00H
	DB	00H
	DB	00H
	DB	00H
	DB	00H
	DB	00H
	DB	00H
	DB	00H
	DB	00H
	DB	00H
	DB	00H
	DB	00H
	DB	00H
	DB	00H
	DB	00H
	DB	00H
	DB	00H
	DB	00H
	DB	00H
	DB	00H
	DB	00H
	DB	00H
	DB	00H
	DB	00H
	DB	00H
	DB	00H
	DB	00H
	DB	00H
	DB	00H
	DB	00H
	DB	00H
	DB	00H
	DB	00H
	DB	00H
	DB	00H
	DB	00H
	DB	00H
	DB	00H
	DB	00H
	DB	00H
	DB	00H
	DB	00H
	DB	00H
	DB	00H
	DB	00H
	DB	00H
	DB	00H
	DB	00H
	DB	00H
	DB	00H
	DB	00H
	DB	00H
	DB	00H
	DB	00H
	DB	00H
	DB	00H
	DB	00H
	DB	00H
	DB	00H
	DB	00H
	DB	00H
	DB	00H
	DB	00H
	DB	00H
	DB	00H
	DB	00H
	DB	00H
	DB	00H
	DB	00H
	DB	00H
	DB	00H
	DB	00H
	DB	00H
	DB	00H
	DB	00H
	DB	00H
	DB	00H
	DB	00H
	DB	00H
	DB	00H
	DB	00H
	DB	00H
	DB	00H
	DB	00H
	DB	00H
	DB	00H
	DB	00H
	DB	00H
	DB	00H
	DB	00H
	DB	00H
	DB	00H
	DB	00H
	DB	00H
	DB	00H
	DB	00H
	DB	00H
	DB	00H
	DB	00H
	DB	00H
	DB	00H
	DB	00H
	DB	00H
	DB	00H
	DB	00H
	DB	00H
	DB	00H
	DB	00H
	DB	00H
	DB	00H
	DB	00H
	DB	00H
	DB	00H
	DB	00H
	DB	00H
	DB	00H
	DB	00H
	DB	00H
	DB	00H
	DB	00H
	DB	00H
	DB	00H
	DB	00H
	DB	00H
	DB	00H
	DB	00H
	DB	00H
	DB	00H
	DB	00H
	DB	00H
	DB	00H
	DB	00H
	DB	00H
	DB	00H
	DB	00H
	DB	00H
	DB	00H
	DB	00H
	DB	00H
	DB	00H
	DB	00H
	DB	00H
	DB	00H
	DB	00H
	DB	00H
	DB	00H
	DB	00H
	DB	00H
	DB	00H
	DB	00H
	DB	00H
	DB	00H
	DB	00H
	DB	00H
	DB	00H
	DB	00H
	DB	00H
	DB	00H
	DB	00H
	DB	00H
	DB	00H
	DB	00H
	DB	00H
	DB	00H
	DB	00H
	DB	00H
	DB	00H
	DB	00H
	DB	00H
	DB	00H
	DB	00H
	DB	00H
	DB	00H
	DB	00H
	DB	00H
	DB	00H
	DB	00H
	DB	00H
	DB	00H
	DB	00H
	DB	00H
	DB	00H
	DB	00H
	DB	00H
	DB	00H
	DB	00H
	DB	00H
	DB	00H
	DB	00H
	DB	00H
	DB	00H
	DB	00H
	DB	00H
	DB	00H
	DB	00H
	DB	00H
	DB	00H
	DB	00H
	DB	00H
	DB	00H
	DB	00H
	DB	00H
	DB	00H
	DB	00H
	DB	00H
	DB	00H
	DB	00H
	DB	00H
	DB	00H
	DB	00H
	DB	00H
	DB	00H
	DB	00H
	DB	00H
	DB	00H
	DB	00H
	DB	00H
	DB	00H
	DB	00H
	DB	00H
	DB	00H
	DB	00H
	DB	00H
	DB	00H
	DB	00H
	DB	00H
	DB	00H
	DB	00H
	DB	00H
	DB	00H
	DB	00H
	DB	00H
	DB	00H
	DB	00H
	DB	00H
	DB	00H
	DB	00H
	DB	00H
	DB	00H
	DB	00H
	DB	00H
	DB	00H
	DB	00H
	DB	00H
	DB	00H
	DB	00H
	DB	00H
	DB	00H
	DB	00H
	DB	00H
	DB	00H
	DB	00H
	DB	00H
	DB	00H
	DB	00H
	DB	00H
	DB	00H
	DB	00H
	DB	00H
	DB	00H
	DB	00H
	DB	00H
	DB	00H
	DB	00H
	DB	00H
	DB	00H
	DB	00H
	DB	00H
	DB	00H
	DB	00H
	DB	00H
	DB	00H
	DB	00H
	DB	00H
	DB	00H
	DB	00H
	DB	00H
	DB	00H
	DB	00H
	DB	00H
	DB	00H
	DB	00H
	DB	00H
	DB	00H
	DB	00H
	DB	00H
	DB	00H
	DB	00H
	DB	00H
	DB	00H
	DB	00H
	DB	00H
	DB	00H
	DB	00H
	DB	00H
	DB	00H
	DB	00H
	DB	00H
	DB	00H
	DB	00H
	DB	00H
	DB	00H
	DB	00H
	DB	00H
	DB	00H
	DB	00H
	DB	00H
	DB	00H
	DB	00H
	DB	00H
	DB	00H
	DB	00H
	DB	00H
	DB	00H
	DB	00H
	DB	00H
	DB	00H
	DB	00H
	DB	00H
	DB	00H
	DB	00H
	DB	00H
	DB	00H
	DB	00H
	DB	00H
	DB	00H
	DB	00H
	DB	00H
	DB	00H
	DB	00H
	DB	00H
	DB	00H
	DB	00H
	DB	00H
	DB	00H
	DB	00H
	DB	00H
	DB	00H
	DB	00H
	DB	00H
	DB	00H
	DB	00H
	DB	00H
	DB	00H
	DB	00H
	DB	00H
	DB	00H
	DB	00H
	DB	00H
	DB	00H
	DB	00H
	DB	00H
	DB	00H
	DB	00H
	DB	00H
	DB	00H
	DB	00H
	DB	00H
	DB	00H
	DB	00H
	DB	00H
	DB	00H
	DB	00H
	DB	00H
	DB	00H
	DB	00H
	DB	00H
	DB	00H
	DB	00H
	DB	00H
	DB	00H
	DB	00H
	DB	00H
	DB	00H
	DB	00H
	DB	00H
	DB	00H
	DB	00H
	DB	00H
	DB	00H
	DB	00H
	DB	00H
	DB	00H
	DB	00H
	DB	00H
	DB	00H
	DB	00H
	DB	00H
	DB	00H
	DB	00H
	DB	00H
	DB	00H
	DB	00H
	DB	00H
	DB	00H
	DB	00H
	DB	00H
	DB	00H
	DB	00H
	DB	00H
	DB	00H
	DB	00H
	DB	00H
	DB	00H
	DB	00H
	DB	00H
	DB	00H
	DB	00H
	DB	00H
	DB	00H
	DB	00H
	DB	00H
	DB	00H
	DB	00H
	DB	00H
	DB	00H
	DB	00H
	DB	00H
	DB	00H
	DB	00H
	DB	00H
	DB	00H
	DB	00H
	DB	00H
	DB	00H
	DB	00H
	DB	00H
	DB	00H
	DB	00H
	DB	00H
	DB	00H
	DB	00H
	DB	00H
	DB	00H
	DB	00H
	DB	00H
	DB	00H
	DB	00H
	DB	00H
	DB	00H
	DB	00H
	DB	00H
	DB	00H
	DB	00H
	DB	00H
	DB	00H
	DB	00H
	DB	00H
	DB	00H
	DB	00H
	DB	00H
	DB	00H
	DB	00H
	DB	00H
	DB	00H
	DB	00H
	DB	00H
	DB	00H
	DB	00H
	DB	00H
	DB	00H
	DB	00H
	DB	00H
	DB	00H
	DB	00H
	DB	00H
	DB	00H
	DB	00H
	DB	00H
	DB	00H
	DB	00H
	DB	00H
	DB	00H
	DB	00H
	DB	00H
	DB	00H
	DB	00H
	DB	00H
	DB	00H
	DB	00H
	DB	00H
	DB	00H
	DB	00H
	DB	00H
	DB	050H
	DB	03cH
	DB	01H
	DB	01dH
	DB	051H
	DB	03cH
	DB	01H
	DB	05eH
	DB	052H
	DB	03dH
	DB	01H
	DB	092H
	DB	054H
	DB	03fH
	DB	01H
	DB	0b9H
	DB	056H
	DB	03fH
	DB	01H
	DB	0d9H
	DB	058H
	DB	041H
	DB	01H
	DB	0edH
	DB	059H
	DB	042H
	DB	01H
	DB	0f8H
	DB	059H
	DB	042H
	DB	01H
	DB	0f9H
	DB	058H
	DB	041H
	DB	01H
	DB	0edH
	DB	056H
	DB	03fH
	DB	01H
	DB	0d9H
	DB	054H
	DB	03fH
	DB	01H
	DB	0b9H
	DB	052H
	DB	03dH
	DB	01H
	DB	092H
	DB	051H
	DB	03cH
	DB	01H
	DB	05eH
	DB	050H
	DB	03cH
	DB	01H
	DB	01dH
	DB	00H
	DB	00H
	DB	00H
	DB	00H
	DB	00H
	DB	00H
	DB	00H
	DB	00H
	DB	00H
	DB	00H
	DB	00H
	DB	00H
	DB	00H
	DB	00H
	DB	00H
	DB	00H
	DB	00H
	DB	00H
	DB	00H
	DB	00H
	DB	00H
	DB	00H
	DB	00H
	DB	00H
	DB	00H
	DB	00H
	DB	00H
	DB	00H
	DB	00H
	DB	00H
	DB	00H
	DB	00H
	DB	00H
	DB	00H
	DB	00H
	DB	00H
	DB	00H
	DB	00H
	DB	00H
	DB	00H
	DB	00H
	DB	00H
	DB	00H
	DB	00H
	DB	00H
	DB	00H
	DB	00H
	DB	00H
	DB	00H
	DB	00H
	DB	00H
	DB	00H
	DB	00H
	DB	00H
	DB	00H
	DB	00H
	DB	00H
	DB	00H
	DB	00H
	DB	00H
	DB	00H
	DB	00H
	DB	00H
	DB	00H
	DB	00H
	DB	00H
	DB	00H
	DB	00H
	DB	00H
	DB	00H
	DB	00H
	DB	00H
	DB	00H
	DB	00H
	DB	00H
	DB	00H
	DB	00H
	DB	00H
	DB	00H
	DB	00H
	DB	00H
	DB	00H
	DB	00H
	DB	00H
	DB	00H
	DB	00H
	DB	00H
	DB	00H
	DB	00H
	DB	00H
	DB	00H
	DB	00H
	DB	00H
	DB	00H
	DB	00H
	DB	00H
	DB	00H
	DB	00H
	DB	00H
	DB	00H
	DB	00H
	DB	00H
	DB	00H
	DB	00H
	DB	00H
	DB	00H
	DB	00H
	DB	00H
	DB	00H
	DB	00H
	DB	00H
	DB	00H
	DB	00H
	DB	00H
	DB	00H
	DB	00H
	DB	00H
	DB	00H
	DB	00H
	DB	00H
	DB	00H
	DB	00H
	DB	00H
	DB	00H
	DB	00H
	DB	00H
	DB	00H
	DB	00H
	DB	00H
	DB	00H
	DB	00H
	DB	00H
	DB	00H
	DB	00H
	DB	00H
	DB	00H
	DB	00H
	DB	00H
	DB	00H
	DB	00H
	DB	00H
	DB	00H
	DB	00H
	DB	00H
	DB	00H
	DB	00H
	DB	00H
	DB	00H
	DB	00H
	DB	00H
	DB	00H
	DB	00H
	DB	00H
	DB	00H
	DB	00H
	DB	00H
	DB	00H
	DB	00H
	DB	00H
	DB	00H
	DB	00H
	DB	00H
	DB	00H
	DB	00H
	DB	00H
	DB	00H
	DB	00H
	DB	00H
	DB	00H
	DB	00H
	DB	00H
	DB	00H
	DB	050H
	DB	03cH
	DB	01H
	DB	01eH
	DB	052H
	DB	03dH
	DB	01H
	DB	07dH
	DB	057H
	DB	040H
	DB	01H
	DB	0d5H
	DB	05bH
	DB	043H
	DB	01H
	DB	0ffH
	DB	05fH
	DB	046H
	DB	01H
	DB	0ffH
	DB	062H
	DB	048H
	DB	01H
	DB	0ffH
	DB	064H
	DB	04aH
	DB	01H
	DB	0ffH
	DB	066H
	DB	04bH
	DB	01H
	DB	0ffH
	DB	067H
	DB	04bH
	DB	01H
	DB	0ffH
	DB	068H
	DB	04dH
	DB	01H
	DB	0ffH
	DB	068H
	DB	04dH
	DB	01H
	DB	0ffH
	DB	067H
	DB	04bH
	DB	01H
	DB	0ffH
	DB	066H
	DB	04bH
	DB	01H
	DB	0ffH
	DB	064H
	DB	04aH
	DB	01H
	DB	0ffH
	DB	062H
	DB	048H
	DB	01H
	DB	0ffH
	DB	05fH
	DB	046H
	DB	01H
	DB	0ffH
	DB	05bH
	DB	043H
	DB	01H
	DB	0ffH
	DB	057H
	DB	040H
	DB	01H
	DB	0d5H
	DB	052H
	DB	03dH
	DB	01H
	DB	07dH
	DB	050H
	DB	03cH
	DB	01H
	DB	01fH
	DB	00H
	DB	00H
	DB	00H
	DB	00H
	DB	00H
	DB	00H
	DB	00H
	DB	00H
	DB	00H
	DB	00H
	DB	00H
	DB	00H
	DB	00H
	DB	00H
	DB	00H
	DB	00H
	DB	00H
	DB	00H
	DB	00H
	DB	00H
	DB	00H
	DB	00H
	DB	00H
	DB	00H
	DB	00H
	DB	00H
	DB	00H
	DB	00H
	DB	00H
	DB	00H
	DB	00H
	DB	00H
	DB	00H
	DB	00H
	DB	00H
	DB	00H
	DB	00H
	DB	00H
	DB	00H
	DB	00H
	DB	00H
	DB	00H
	DB	00H
	DB	00H
	DB	00H
	DB	00H
	DB	00H
	DB	00H
	DB	00H
	DB	00H
	DB	00H
	DB	00H
	DB	00H
	DB	00H
	DB	00H
	DB	00H
	DB	00H
	DB	00H
	DB	00H
	DB	00H
	DB	00H
	DB	00H
	DB	00H
	DB	00H
	DB	00H
	DB	00H
	DB	00H
	DB	00H
	DB	00H
	DB	00H
	DB	00H
	DB	00H
	DB	00H
	DB	00H
	DB	00H
	DB	00H
	DB	00H
	DB	00H
	DB	00H
	DB	00H
	DB	00H
	DB	00H
	DB	00H
	DB	00H
	DB	00H
	DB	00H
	DB	00H
	DB	00H
	DB	00H
	DB	00H
	DB	00H
	DB	00H
	DB	00H
	DB	00H
	DB	00H
	DB	00H
	DB	00H
	DB	00H
	DB	00H
	DB	00H
	DB	00H
	DB	00H
	DB	00H
	DB	00H
	DB	00H
	DB	00H
	DB	00H
	DB	00H
	DB	00H
	DB	00H
	DB	00H
	DB	00H
	DB	00H
	DB	00H
	DB	00H
	DB	00H
	DB	00H
	DB	00H
	DB	00H
	DB	00H
	DB	00H
	DB	00H
	DB	00H
	DB	00H
	DB	00H
	DB	00H
	DB	00H
	DB	00H
	DB	00H
	DB	00H
	DB	00H
	DB	00H
	DB	00H
	DB	00H
	DB	00H
	DB	00H
	DB	00H
	DB	00H
	DB	00H
	DB	00H
	DB	00H
	DB	00H
	DB	00H
	DB	00H
	DB	00H
	DB	00H
	DB	00H
	DB	00H
	DB	00H
	DB	00H
	DB	00H
	DB	00H
	DB	051H
	DB	03cH
	DB	01H
	DB	02fH
	DB	054H
	DB	03eH
	DB	01H
	DB	0aaH
	DB	05bH
	DB	042H
	DB	01H
	DB	0fdH
	DB	061H
	DB	047H
	DB	01H
	DB	0ffH
	DB	065H
	DB	04aH
	DB	01H
	DB	0ffH
	DB	06aH
	DB	04dH
	DB	01H
	DB	0ffH
	DB	06cH
	DB	050H
	DB	01H
	DB	0ffH
	DB	06fH
	DB	052H
	DB	01H
	DB	0ffH
	DB	072H
	DB	054H
	DB	01H
	DB	0ffH
	DB	074H
	DB	055H
	DB	01H
	DB	0ffH
	DB	074H
	DB	056H
	DB	01H
	DB	0ffH
	DB	075H
	DB	056H
	DB	01H
	DB	0ffH
	DB	075H
	DB	056H
	DB	01H
	DB	0ffH
	DB	074H
	DB	056H
	DB	01H
	DB	0ffH
	DB	074H
	DB	055H
	DB	01H
	DB	0ffH
	DB	072H
	DB	054H
	DB	01H
	DB	0ffH
	DB	06fH
	DB	052H
	DB	01H
	DB	0ffH
	DB	06cH
	DB	050H
	DB	01H
	DB	0ffH
	DB	06aH
	DB	04dH
	DB	01H
	DB	0ffH
	DB	065H
	DB	04aH
	DB	01H
	DB	0ffH
	DB	061H
	DB	047H
	DB	01H
	DB	0ffH
	DB	05bH
	DB	042H
	DB	01H
	DB	0fdH
	DB	054H
	DB	03eH
	DB	01H
	DB	0aaH
	DB	051H
	DB	03cH
	DB	01H
	DB	02fH
	DB	00H
	DB	00H
	DB	00H
	DB	00H
	DB	00H
	DB	00H
	DB	00H
	DB	00H
	DB	00H
	DB	00H
	DB	00H
	DB	00H
	DB	00H
	DB	00H
	DB	00H
	DB	00H
	DB	00H
	DB	00H
	DB	00H
	DB	00H
	DB	00H
	DB	00H
	DB	00H
	DB	00H
	DB	00H
	DB	00H
	DB	00H
	DB	00H
	DB	00H
	DB	00H
	DB	00H
	DB	00H
	DB	00H
	DB	00H
	DB	00H
	DB	00H
	DB	00H
	DB	00H
	DB	00H
	DB	00H
	DB	00H
	DB	00H
	DB	00H
	DB	00H
	DB	00H
	DB	00H
	DB	00H
	DB	00H
	DB	00H
	DB	00H
	DB	00H
	DB	00H
	DB	00H
	DB	00H
	DB	00H
	DB	00H
	DB	00H
	DB	00H
	DB	00H
	DB	00H
	DB	00H
	DB	00H
	DB	00H
	DB	00H
	DB	00H
	DB	00H
	DB	00H
	DB	00H
	DB	00H
	DB	00H
	DB	00H
	DB	00H
	DB	00H
	DB	00H
	DB	00H
	DB	00H
	DB	00H
	DB	00H
	DB	00H
	DB	00H
	DB	00H
	DB	00H
	DB	00H
	DB	00H
	DB	00H
	DB	00H
	DB	00H
	DB	00H
	DB	00H
	DB	00H
	DB	00H
	DB	00H
	DB	00H
	DB	00H
	DB	00H
	DB	00H
	DB	00H
	DB	00H
	DB	00H
	DB	00H
	DB	00H
	DB	00H
	DB	00H
	DB	00H
	DB	00H
	DB	00H
	DB	00H
	DB	00H
	DB	00H
	DB	00H
	DB	00H
	DB	00H
	DB	00H
	DB	00H
	DB	00H
	DB	00H
	DB	00H
	DB	00H
	DB	00H
	DB	00H
	DB	00H
	DB	00H
	DB	00H
	DB	00H
	DB	00H
	DB	00H
	DB	00H
	DB	00H
	DB	00H
	DB	00H
	DB	00H
	DB	00H
	DB	00H
	DB	00H
	DB	00H
	DB	00H
	DB	051H
	DB	03cH
	DB	01H
	DB	016H
	DB	054H
	DB	03eH
	DB	01H
	DB	0a0H
	DB	05bH
	DB	043H
	DB	01H
	DB	0feH
	DB	063H
	DB	04aH
	DB	01H
	DB	0ffH
	DB	069H
	DB	04fH
	DB	01H
	DB	0ffH
	DB	06fH
	DB	052H
	DB	01H
	DB	0ffH
	DB	072H
	DB	055H
	DB	01H
	DB	0ffH
	DB	076H
	DB	058H
	DB	01H
	DB	0ffH
	DB	078H
	DB	059H
	DB	01H
	DB	0ffH
	DB	07aH
	DB	05aH
	DB	01H
	DB	0ffH
	DB	07bH
	DB	05bH
	DB	01H
	DB	0ffH
	DB	07cH
	DB	05cH
	DB	01H
	DB	0ffH
	DB	07cH
	DB	05cH
	DB	01H
	DB	0ffH
	DB	07dH
	DB	05dH
	DB	01H
	DB	0ffH
	DB	07dH
	DB	05dH
	DB	01H
	DB	0ffH
	DB	07cH
	DB	05cH
	DB	01H
	DB	0ffH
	DB	07cH
	DB	05cH
	DB	01H
	DB	0ffH
	DB	07bH
	DB	05bH
	DB	01H
	DB	0ffH
	DB	07aH
	DB	05aH
	DB	01H
	DB	0ffH
	DB	078H
	DB	059H
	DB	01H
	DB	0ffH
	DB	076H
	DB	058H
	DB	01H
	DB	0ffH
	DB	072H
	DB	055H
	DB	01H
	DB	0ffH
	DB	06fH
	DB	052H
	DB	01H
	DB	0ffH
	DB	069H
	DB	04fH
	DB	01H
	DB	0ffH
	DB	063H
	DB	04aH
	DB	01H
	DB	0ffH
	DB	05bH
	DB	043H
	DB	01H
	DB	0feH
	DB	054H
	DB	03eH
	DB	01H
	DB	0a0H
	DB	051H
	DB	03cH
	DB	01H
	DB	016H
	DB	00H
	DB	00H
	DB	00H
	DB	00H
	DB	00H
	DB	00H
	DB	00H
	DB	00H
	DB	00H
	DB	00H
	DB	00H
	DB	00H
	DB	00H
	DB	00H
	DB	00H
	DB	00H
	DB	00H
	DB	00H
	DB	00H
	DB	00H
	DB	00H
	DB	00H
	DB	00H
	DB	00H
	DB	00H
	DB	00H
	DB	00H
	DB	00H
	DB	00H
	DB	00H
	DB	00H
	DB	00H
	DB	00H
	DB	00H
	DB	00H
	DB	00H
	DB	00H
	DB	00H
	DB	00H
	DB	00H
	DB	00H
	DB	00H
	DB	00H
	DB	00H
	DB	00H
	DB	00H
	DB	00H
	DB	00H
	DB	00H
	DB	00H
	DB	00H
	DB	00H
	DB	00H
	DB	00H
	DB	00H
	DB	00H
	DB	00H
	DB	00H
	DB	00H
	DB	00H
	DB	00H
	DB	00H
	DB	00H
	DB	00H
	DB	00H
	DB	00H
	DB	00H
	DB	00H
	DB	00H
	DB	00H
	DB	00H
	DB	00H
	DB	00H
	DB	00H
	DB	00H
	DB	00H
	DB	00H
	DB	00H
	DB	00H
	DB	00H
	DB	00H
	DB	00H
	DB	00H
	DB	00H
	DB	00H
	DB	00H
	DB	00H
	DB	00H
	DB	00H
	DB	00H
	DB	00H
	DB	00H
	DB	00H
	DB	00H
	DB	00H
	DB	00H
	DB	00H
	DB	00H
	DB	00H
	DB	00H
	DB	00H
	DB	00H
	DB	00H
	DB	00H
	DB	00H
	DB	00H
	DB	00H
	DB	00H
	DB	00H
	DB	00H
	DB	00H
	DB	00H
	DB	00H
	DB	00H
	DB	00H
	DB	00H
	DB	00H
	DB	00H
	DB	00H
	DB	00H
	DB	00H
	DB	00H
	DB	00H
	DB	00H
	DB	052H
	DB	03dH
	DB	01H
	DB	055H
	DB	05aH
	DB	042H
	DB	01H
	DB	0efH
	DB	063H
	DB	049H
	DB	01H
	DB	0ffH
	DB	06bH
	DB	04fH
	DB	01H
	DB	0ffH
	DB	071H
	DB	053H
	DB	01H
	DB	0ffH
	DB	076H
	DB	057H
	DB	01H
	DB	0ffH
	DB	07aH
	DB	05aH
	DB	01H
	DB	0ffH
	DB	07cH
	DB	05bH
	DB	01H
	DB	0ffH
	DB	07eH
	DB	05dH
	DB	01H
	DB	0ffH
	DB	07fH
	DB	05eH
	DB	01H
	DB	0ffH
	DB	080H
	DB	05fH
	DB	01H
	DB	0ffH
	DB	081H
	DB	05fH
	DB	01H
	DB	0ffH
	DB	082H
	DB	060H
	DB	01H
	DB	0ffH
	DB	082H
	DB	060H
	DB	01H
	DB	0ffH
	DB	082H
	DB	060H
	DB	01H
	DB	0ffH
	DB	082H
	DB	060H
	DB	01H
	DB	0ffH
	DB	082H
	DB	060H
	DB	01H
	DB	0ffH
	DB	082H
	DB	060H
	DB	01H
	DB	0ffH
	DB	081H
	DB	05fH
	DB	01H
	DB	0ffH
	DB	080H
	DB	05fH
	DB	01H
	DB	0ffH
	DB	07fH
	DB	05eH
	DB	01H
	DB	0ffH
	DB	07eH
	DB	05dH
	DB	01H
	DB	0ffH
	DB	07cH
	DB	05bH
	DB	01H
	DB	0ffH
	DB	07aH
	DB	05aH
	DB	01H
	DB	0ffH
	DB	076H
	DB	057H
	DB	01H
	DB	0ffH
	DB	071H
	DB	053H
	DB	01H
	DB	0ffH
	DB	06bH
	DB	04fH
	DB	01H
	DB	0ffH
	DB	063H
	DB	049H
	DB	01H
	DB	0ffH
	DB	05aH
	DB	042H
	DB	01H
	DB	0efH
	DB	052H
	DB	03dH
	DB	01H
	DB	055H
	DB	00H
	DB	00H
	DB	00H
	DB	00H
	DB	00H
	DB	00H
	DB	00H
	DB	00H
	DB	00H
	DB	00H
	DB	00H
	DB	00H
	DB	00H
	DB	00H
	DB	00H
	DB	00H
	DB	00H
	DB	00H
	DB	00H
	DB	00H
	DB	00H
	DB	00H
	DB	00H
	DB	00H
	DB	00H
	DB	00H
	DB	00H
	DB	00H
	DB	00H
	DB	00H
	DB	00H
	DB	00H
	DB	00H
	DB	00H
	DB	00H
	DB	00H
	DB	00H
	DB	00H
	DB	00H
	DB	00H
	DB	00H
	DB	00H
	DB	00H
	DB	00H
	DB	00H
	DB	00H
	DB	00H
	DB	00H
	DB	00H
	DB	00H
	DB	00H
	DB	00H
	DB	00H
	DB	00H
	DB	00H
	DB	00H
	DB	00H
	DB	00H
	DB	00H
	DB	00H
	DB	00H
	DB	00H
	DB	00H
	DB	00H
	DB	00H
	DB	00H
	DB	00H
	DB	00H
	DB	00H
	DB	00H
	DB	00H
	DB	00H
	DB	00H
	DB	00H
	DB	00H
	DB	00H
	DB	00H
	DB	00H
	DB	00H
	DB	00H
	DB	00H
	DB	00H
	DB	00H
	DB	00H
	DB	00H
	DB	00H
	DB	00H
	DB	00H
	DB	00H
	DB	00H
	DB	00H
	DB	00H
	DB	00H
	DB	00H
	DB	00H
	DB	00H
	DB	00H
	DB	00H
	DB	00H
	DB	00H
	DB	00H
	DB	00H
	DB	00H
	DB	00H
	DB	00H
	DB	00H
	DB	00H
	DB	00H
	DB	00H
	DB	00H
	DB	00H
	DB	00H
	DB	050H
	DB	03bH
	DB	01H
	DB	06H
	DB	055H
	DB	03eH
	DB	01H
	DB	096H
	DB	05eH
	DB	045H
	DB	01H
	DB	0ffH
	DB	069H
	DB	04dH
	DB	01H
	DB	0ffH
	DB	070H
	DB	053H
	DB	01H
	DB	0ffH
	DB	077H
	DB	057H
	DB	01H
	DB	0ffH
	DB	07bH
	DB	05aH
	DB	01H
	DB	0ffH
	DB	07eH
	DB	05dH
	DB	01H
	DB	0ffH
	DB	080H
	DB	05eH
	DB	01H
	DB	0ffH
	DB	081H
	DB	05fH
	DB	01H
	DB	0ffH
	DB	082H
	DB	060H
	DB	01H
	DB	0ffH
	DB	083H
	DB	061H
	DB	01H
	DB	0ffH
	DB	084H
	DB	061H
	DB	01H
	DB	0ffH
	DB	084H
	DB	062H
	DB	01H
	DB	0ffH
	DB	084H
	DB	062H
	DB	01H
	DB	0ffH
	DB	084H
	DB	062H
	DB	01H
	DB	0ffH
	DB	085H
	DB	062H
	DB	01H
	DB	0ffH
	DB	085H
	DB	062H
	DB	01H
	DB	0ffH
	DB	084H
	DB	062H
	DB	01H
	DB	0ffH
	DB	084H
	DB	062H
	DB	01H
	DB	0ffH
	DB	084H
	DB	062H
	DB	01H
	DB	0ffH
	DB	084H
	DB	061H
	DB	01H
	DB	0ffH
	DB	083H
	DB	061H
	DB	01H
	DB	0ffH
	DB	082H
	DB	060H
	DB	01H
	DB	0ffH
	DB	081H
	DB	05fH
	DB	01H
	DB	0ffH
	DB	080H
	DB	05eH
	DB	01H
	DB	0ffH
	DB	07eH
	DB	05dH
	DB	01H
	DB	0ffH
	DB	07bH
	DB	05aH
	DB	01H
	DB	0ffH
	DB	077H
	DB	057H
	DB	01H
	DB	0ffH
	DB	070H
	DB	053H
	DB	01H
	DB	0ffH
	DB	069H
	DB	04dH
	DB	01H
	DB	0ffH
	DB	05eH
	DB	045H
	DB	01H
	DB	0ffH
	DB	055H
	DB	03eH
	DB	01H
	DB	097H
	DB	050H
	DB	03bH
	DB	01H
	DB	06H
	DB	00H
	DB	00H
	DB	00H
	DB	00H
	DB	00H
	DB	00H
	DB	00H
	DB	00H
	DB	00H
	DB	00H
	DB	00H
	DB	00H
	DB	00H
	DB	00H
	DB	00H
	DB	00H
	DB	00H
	DB	00H
	DB	00H
	DB	00H
	DB	00H
	DB	00H
	DB	00H
	DB	00H
	DB	00H
	DB	00H
	DB	00H
	DB	00H
	DB	00H
	DB	00H
	DB	00H
	DB	00H
	DB	00H
	DB	00H
	DB	00H
	DB	00H
	DB	00H
	DB	00H
	DB	00H
	DB	00H
	DB	00H
	DB	00H
	DB	00H
	DB	00H
	DB	00H
	DB	00H
	DB	00H
	DB	00H
	DB	00H
	DB	00H
	DB	00H
	DB	00H
	DB	00H
	DB	00H
	DB	00H
	DB	00H
	DB	00H
	DB	00H
	DB	00H
	DB	00H
	DB	00H
	DB	00H
	DB	00H
	DB	00H
	DB	00H
	DB	00H
	DB	00H
	DB	00H
	DB	00H
	DB	00H
	DB	00H
	DB	00H
	DB	00H
	DB	00H
	DB	00H
	DB	00H
	DB	00H
	DB	00H
	DB	00H
	DB	00H
	DB	00H
	DB	00H
	DB	00H
	DB	00H
	DB	00H
	DB	00H
	DB	00H
	DB	00H
	DB	00H
	DB	00H
	DB	00H
	DB	00H
	DB	00H
	DB	00H
	DB	00H
	DB	00H
	DB	00H
	DB	00H
	DB	00H
	DB	00H
	DB	051H
	DB	03bH
	DB	01H
	DB	0cH
	DB	057H
	DB	040H
	DB	01H
	DB	0b9H
	DB	062H
	DB	048H
	DB	01H
	DB	0ffH
	DB	06cH
	DB	050H
	DB	01H
	DB	0ffH
	DB	074H
	DB	055H
	DB	01H
	DB	0ffH
	DB	079H
	DB	05aH
	DB	01H
	DB	0ffH
	DB	07eH
	DB	05dH
	DB	01H
	DB	0ffH
	DB	080H
	DB	05fH
	DB	01H
	DB	0ffH
	DB	082H
	DB	060H
	DB	01H
	DB	0ffH
	DB	083H
	DB	061H
	DB	01H
	DB	0ffH
	DB	084H
	DB	061H
	DB	01H
	DB	0ffH
	DB	084H
	DB	062H
	DB	01H
	DB	0ffH
	DB	085H
	DB	062H
	DB	01H
	DB	0ffH
	DB	085H
	DB	062H
	DB	01H
	DB	0ffH
	DB	085H
	DB	062H
	DB	01H
	DB	0ffH
	DB	085H
	DB	062H
	DB	01H
	DB	0ffH
	DB	085H
	DB	062H
	DB	01H
	DB	0ffH
	DB	085H
	DB	062H
	DB	01H
	DB	0ffH
	DB	085H
	DB	062H
	DB	01H
	DB	0ffH
	DB	085H
	DB	062H
	DB	01H
	DB	0ffH
	DB	085H
	DB	062H
	DB	01H
	DB	0ffH
	DB	085H
	DB	062H
	DB	01H
	DB	0ffH
	DB	085H
	DB	062H
	DB	01H
	DB	0ffH
	DB	085H
	DB	062H
	DB	01H
	DB	0ffH
	DB	084H
	DB	062H
	DB	01H
	DB	0ffH
	DB	084H
	DB	061H
	DB	01H
	DB	0ffH
	DB	083H
	DB	061H
	DB	01H
	DB	0ffH
	DB	082H
	DB	060H
	DB	01H
	DB	0ffH
	DB	080H
	DB	05fH
	DB	01H
	DB	0ffH
	DB	07eH
	DB	05dH
	DB	01H
	DB	0ffH
	DB	079H
	DB	05aH
	DB	01H
	DB	0ffH
	DB	074H
	DB	055H
	DB	01H
	DB	0ffH
	DB	06cH
	DB	050H
	DB	01H
	DB	0ffH
	DB	062H
	DB	048H
	DB	01H
	DB	0ffH
	DB	057H
	DB	040H
	DB	01H
	DB	0b9H
	DB	051H
	DB	03bH
	DB	01H
	DB	0cH
	DB	00H
	DB	00H
	DB	00H
	DB	00H
	DB	00H
	DB	00H
	DB	00H
	DB	00H
	DB	00H
	DB	00H
	DB	00H
	DB	00H
	DB	00H
	DB	00H
	DB	00H
	DB	00H
	DB	00H
	DB	00H
	DB	00H
	DB	00H
	DB	00H
	DB	00H
	DB	00H
	DB	00H
	DB	00H
	DB	00H
	DB	00H
	DB	00H
	DB	00H
	DB	00H
	DB	00H
	DB	00H
	DB	00H
	DB	00H
	DB	00H
	DB	00H
	DB	00H
	DB	00H
	DB	00H
	DB	00H
	DB	00H
	DB	00H
	DB	00H
	DB	00H
	DB	00H
	DB	00H
	DB	00H
	DB	00H
	DB	00H
	DB	00H
	DB	00H
	DB	00H
	DB	00H
	DB	00H
	DB	00H
	DB	00H
	DB	00H
	DB	00H
	DB	00H
	DB	00H
	DB	00H
	DB	00H
	DB	00H
	DB	00H
	DB	00H
	DB	00H
	DB	00H
	DB	00H
	DB	00H
	DB	00H
	DB	00H
	DB	00H
	DB	00H
	DB	00H
	DB	00H
	DB	00H
	DB	00H
	DB	00H
	DB	00H
	DB	00H
	DB	00H
	DB	00H
	DB	00H
	DB	00H
	DB	00H
	DB	00H
	DB	00H
	DB	00H
	DB	00H
	DB	00H
	DB	00H
	DB	00H
	DB	052H
	DB	03cH
	DB	01H
	DB	0aH
	DB	059H
	DB	041H
	DB	01H
	DB	0c6H
	DB	065H
	DB	04bH
	DB	01H
	DB	0ffH
	DB	06fH
	DB	053H
	DB	01H
	DB	0ffH
	DB	077H
	DB	058H
	DB	01H
	DB	0ffH
	DB	07cH
	DB	05cH
	DB	01H
	DB	0ffH
	DB	081H
	DB	05fH
	DB	01H
	DB	0ffH
	DB	083H
	DB	061H
	DB	01H
	DB	0ffH
	DB	084H
	DB	062H
	DB	01H
	DB	0ffH
	DB	085H
	DB	063H
	DB	01H
	DB	0ffH
	DB	085H
	DB	063H
	DB	01H
	DB	0ffH
	DB	086H
	DB	063H
	DB	01H
	DB	0ffH
	DB	086H
	DB	063H
	DB	01H
	DB	0ffH
	DB	086H
	DB	063H
	DB	01H
	DB	0ffH
	DB	086H
	DB	063H
	DB	01H
	DB	0ffH
	DB	086H
	DB	063H
	DB	01H
	DB	0ffH
	DB	086H
	DB	063H
	DB	01H
	DB	0ffH
	DB	086H
	DB	063H
	DB	01H
	DB	0ffH
	DB	086H
	DB	063H
	DB	01H
	DB	0ffH
	DB	086H
	DB	063H
	DB	01H
	DB	0ffH
	DB	086H
	DB	063H
	DB	01H
	DB	0ffH
	DB	086H
	DB	063H
	DB	01H
	DB	0ffH
	DB	086H
	DB	063H
	DB	01H
	DB	0ffH
	DB	086H
	DB	063H
	DB	01H
	DB	0ffH
	DB	086H
	DB	063H
	DB	01H
	DB	0ffH
	DB	086H
	DB	063H
	DB	01H
	DB	0ffH
	DB	086H
	DB	063H
	DB	01H
	DB	0ffH
	DB	085H
	DB	063H
	DB	01H
	DB	0ffH
	DB	085H
	DB	063H
	DB	01H
	DB	0ffH
	DB	084H
	DB	062H
	DB	01H
	DB	0ffH
	DB	083H
	DB	061H
	DB	01H
	DB	0ffH
	DB	081H
	DB	05fH
	DB	01H
	DB	0ffH
	DB	07cH
	DB	05cH
	DB	01H
	DB	0ffH
	DB	077H
	DB	058H
	DB	01H
	DB	0ffH
	DB	06fH
	DB	053H
	DB	01H
	DB	0ffH
	DB	065H
	DB	04bH
	DB	01H
	DB	0ffH
	DB	059H
	DB	041H
	DB	01H
	DB	0c6H
	DB	052H
	DB	03cH
	DB	01H
	DB	0aH
	DB	00H
	DB	00H
	DB	00H
	DB	00H
	DB	00H
	DB	00H
	DB	00H
	DB	00H
	DB	00H
	DB	00H
	DB	00H
	DB	00H
	DB	00H
	DB	00H
	DB	00H
	DB	00H
	DB	00H
	DB	00H
	DB	00H
	DB	00H
	DB	00H
	DB	00H
	DB	00H
	DB	00H
	DB	00H
	DB	00H
	DB	00H
	DB	00H
	DB	00H
	DB	00H
	DB	00H
	DB	00H
	DB	00H
	DB	00H
	DB	00H
	DB	00H
	DB	00H
	DB	00H
	DB	00H
	DB	00H
	DB	00H
	DB	00H
	DB	00H
	DB	00H
	DB	00H
	DB	00H
	DB	00H
	DB	00H
	DB	00H
	DB	00H
	DB	00H
	DB	00H
	DB	00H
	DB	00H
	DB	00H
	DB	00H
	DB	00H
	DB	00H
	DB	00H
	DB	00H
	DB	00H
	DB	00H
	DB	00H
	DB	00H
	DB	00H
	DB	00H
	DB	00H
	DB	00H
	DB	00H
	DB	00H
	DB	00H
	DB	00H
	DB	00H
	DB	00H
	DB	00H
	DB	00H
	DB	00H
	DB	00H
	DB	00H
	DB	00H
	DB	00H
	DB	00H
	DB	00H
	DB	00H
	DB	050H
	DB	03bH
	DB	01H
	DB	06H
	DB	059H
	DB	042H
	DB	02H
	DB	0beH
	DB	065H
	DB	04bH
	DB	01H
	DB	0ffH
	DB	071H
	DB	054H
	DB	01H
	DB	0ffH
	DB	079H
	DB	059H
	DB	01H
	DB	0ffH
	DB	07fH
	DB	05eH
	DB	01H
	DB	0ffH
	DB	082H
	DB	060H
	DB	01H
	DB	0ffH
	DB	084H
	DB	061H
	DB	01H
	DB	0ffH
	DB	085H
	DB	062H
	DB	01H
	DB	0ffH
	DB	085H
	DB	063H
	DB	01H
	DB	0ffH
	DB	086H
	DB	063H
	DB	01H
	DB	0ffH
	DB	086H
	DB	063H
	DB	01H
	DB	0ffH
	DB	086H
	DB	063H
	DB	01H
	DB	0ffH
	DB	086H
	DB	063H
	DB	01H
	DB	0ffH
	DB	086H
	DB	063H
	DB	01H
	DB	0ffH
	DB	086H
	DB	063H
	DB	01H
	DB	0ffH
	DB	086H
	DB	063H
	DB	01H
	DB	0ffH
	DB	086H
	DB	063H
	DB	01H
	DB	0ffH
	DB	086H
	DB	063H
	DB	01H
	DB	0ffH
	DB	086H
	DB	063H
	DB	01H
	DB	0ffH
	DB	086H
	DB	063H
	DB	01H
	DB	0ffH
	DB	086H
	DB	063H
	DB	01H
	DB	0ffH
	DB	086H
	DB	063H
	DB	01H
	DB	0ffH
	DB	086H
	DB	063H
	DB	01H
	DB	0ffH
	DB	086H
	DB	063H
	DB	01H
	DB	0ffH
	DB	086H
	DB	063H
	DB	01H
	DB	0ffH
	DB	086H
	DB	063H
	DB	01H
	DB	0ffH
	DB	086H
	DB	063H
	DB	01H
	DB	0ffH
	DB	086H
	DB	063H
	DB	01H
	DB	0ffH
	DB	086H
	DB	063H
	DB	01H
	DB	0ffH
	DB	085H
	DB	063H
	DB	01H
	DB	0ffH
	DB	085H
	DB	062H
	DB	01H
	DB	0ffH
	DB	084H
	DB	061H
	DB	01H
	DB	0ffH
	DB	082H
	DB	060H
	DB	01H
	DB	0ffH
	DB	07fH
	DB	05eH
	DB	01H
	DB	0ffH
	DB	079H
	DB	059H
	DB	01H
	DB	0ffH
	DB	071H
	DB	054H
	DB	01H
	DB	0ffH
	DB	065H
	DB	04bH
	DB	01H
	DB	0ffH
	DB	059H
	DB	042H
	DB	02H
	DB	0bdH
	DB	050H
	DB	03bH
	DB	01H
	DB	06H
	DB	00H
	DB	00H
	DB	00H
	DB	00H
	DB	00H
	DB	00H
	DB	00H
	DB	00H
	DB	00H
	DB	00H
	DB	00H
	DB	00H
	DB	00H
	DB	00H
	DB	00H
	DB	00H
	DB	00H
	DB	00H
	DB	00H
	DB	00H
	DB	00H
	DB	00H
	DB	00H
	DB	00H
	DB	00H
	DB	00H
	DB	00H
	DB	00H
	DB	00H
	DB	00H
	DB	00H
	DB	00H
	DB	00H
	DB	00H
	DB	00H
	DB	00H
	DB	00H
	DB	00H
	DB	00H
	DB	00H
	DB	00H
	DB	00H
	DB	00H
	DB	00H
	DB	00H
	DB	00H
	DB	00H
	DB	00H
	DB	00H
	DB	00H
	DB	00H
	DB	00H
	DB	00H
	DB	00H
	DB	00H
	DB	00H
	DB	00H
	DB	00H
	DB	00H
	DB	00H
	DB	00H
	DB	00H
	DB	00H
	DB	00H
	DB	00H
	DB	00H
	DB	00H
	DB	00H
	DB	00H
	DB	00H
	DB	00H
	DB	00H
	DB	00H
	DB	00H
	DB	00H
	DB	00H
	DB	00H
	DB	00H
	DB	00H
	DB	00H
	DB	056H
	DB	040H
	DB	01H
	DB	096H
	DB	064H
	DB	04aH
	DB	01H
	DB	0ffH
	DB	070H
	DB	054H
	DB	01H
	DB	0ffH
	DB	07aH
	DB	05aH
	DB	01H
	DB	0ffH
	DB	07fH
	DB	05eH
	DB	01H
	DB	0ffH
	DB	083H
	DB	061H
	DB	01H
	DB	0ffH
	DB	084H
	DB	062H
	DB	01H
	DB	0ffH
	DB	085H
	DB	063H
	DB	01H
	DB	0ffH
	DB	086H
	DB	063H
	DB	01H
	DB	0ffH
	DB	086H
	DB	063H
	DB	01H
	DB	0ffH
	DB	086H
	DB	063H
	DB	01H
	DB	0ffH
	DB	086H
	DB	063H
	DB	01H
	DB	0ffH
	DB	086H
	DB	063H
	DB	01H
	DB	0ffH
	DB	086H
	DB	063H
	DB	01H
	DB	0ffH
	DB	086H
	DB	063H
	DB	01H
	DB	0ffH
	DB	086H
	DB	063H
	DB	01H
	DB	0ffH
	DB	086H
	DB	063H
	DB	01H
	DB	0ffH
	DB	086H
	DB	063H
	DB	01H
	DB	0ffH
	DB	086H
	DB	063H
	DB	01H
	DB	0ffH
	DB	086H
	DB	063H
	DB	01H
	DB	0ffH
	DB	086H
	DB	063H
	DB	01H
	DB	0ffH
	DB	086H
	DB	063H
	DB	01H
	DB	0ffH
	DB	086H
	DB	063H
	DB	01H
	DB	0ffH
	DB	086H
	DB	063H
	DB	01H
	DB	0ffH
	DB	086H
	DB	063H
	DB	01H
	DB	0ffH
	DB	086H
	DB	063H
	DB	01H
	DB	0ffH
	DB	086H
	DB	063H
	DB	01H
	DB	0ffH
	DB	086H
	DB	063H
	DB	01H
	DB	0ffH
	DB	086H
	DB	063H
	DB	01H
	DB	0ffH
	DB	086H
	DB	063H
	DB	01H
	DB	0ffH
	DB	086H
	DB	063H
	DB	01H
	DB	0ffH
	DB	086H
	DB	063H
	DB	01H
	DB	0ffH
	DB	085H
	DB	063H
	DB	01H
	DB	0ffH
	DB	084H
	DB	062H
	DB	01H
	DB	0ffH
	DB	083H
	DB	061H
	DB	01H
	DB	0ffH
	DB	07fH
	DB	05eH
	DB	01H
	DB	0ffH
	DB	07aH
	DB	05aH
	DB	01H
	DB	0ffH
	DB	070H
	DB	054H
	DB	01H
	DB	0ffH
	DB	064H
	DB	04aH
	DB	01H
	DB	0ffH
	DB	056H
	DB	040H
	DB	01H
	DB	097H
	DB	00H
	DB	00H
	DB	00H
	DB	00H
	DB	00H
	DB	00H
	DB	00H
	DB	00H
	DB	00H
	DB	00H
	DB	00H
	DB	00H
	DB	00H
	DB	00H
	DB	00H
	DB	00H
	DB	00H
	DB	00H
	DB	00H
	DB	00H
	DB	00H
	DB	00H
	DB	00H
	DB	00H
	DB	00H
	DB	00H
	DB	00H
	DB	00H
	DB	00H
	DB	00H
	DB	00H
	DB	00H
	DB	00H
	DB	00H
	DB	00H
	DB	00H
	DB	00H
	DB	00H
	DB	00H
	DB	00H
	DB	00H
	DB	00H
	DB	00H
	DB	00H
	DB	00H
	DB	00H
	DB	00H
	DB	00H
	DB	00H
	DB	00H
	DB	00H
	DB	00H
	DB	00H
	DB	00H
	DB	00H
	DB	00H
	DB	00H
	DB	00H
	DB	00H
	DB	00H
	DB	00H
	DB	00H
	DB	00H
	DB	00H
	DB	00H
	DB	00H
	DB	00H
	DB	00H
	DB	00H
	DB	00H
	DB	00H
	DB	00H
	DB	00H
	DB	00H
	DB	00H
	DB	00H
	DB	056H
	DB	040H
	DB	01H
	DB	057H
	DB	063H
	DB	049H
	DB	01H
	DB	0ffH
	DB	070H
	DB	054H
	DB	01H
	DB	0ffH
	DB	07aH
	DB	05bH
	DB	01H
	DB	0ffH
	DB	081H
	DB	05fH
	DB	01H
	DB	0ffH
	DB	084H
	DB	062H
	DB	01H
	DB	0ffH
	DB	086H
	DB	063H
	DB	01H
	DB	0ffH
	DB	086H
	DB	064H
	DB	01H
	DB	0ffH
	DB	087H
	DB	064H
	DB	01H
	DB	0ffH
	DB	087H
	DB	064H
	DB	01H
	DB	0ffH
	DB	087H
	DB	064H
	DB	01H
	DB	0ffH
	DB	087H
	DB	064H
	DB	01H
	DB	0ffH
	DB	087H
	DB	064H
	DB	01H
	DB	0ffH
	DB	087H
	DB	064H
	DB	01H
	DB	0ffH
	DB	087H
	DB	064H
	DB	01H
	DB	0ffH
	DB	087H
	DB	064H
	DB	01H
	DB	0ffH
	DB	087H
	DB	064H
	DB	01H
	DB	0ffH
	DB	087H
	DB	064H
	DB	01H
	DB	0ffH
	DB	087H
	DB	064H
	DB	01H
	DB	0ffH
	DB	087H
	DB	064H
	DB	01H
	DB	0ffH
	DB	087H
	DB	064H
	DB	01H
	DB	0ffH
	DB	087H
	DB	064H
	DB	01H
	DB	0ffH
	DB	087H
	DB	064H
	DB	01H
	DB	0ffH
	DB	087H
	DB	064H
	DB	01H
	DB	0ffH
	DB	087H
	DB	064H
	DB	01H
	DB	0ffH
	DB	087H
	DB	064H
	DB	01H
	DB	0ffH
	DB	087H
	DB	064H
	DB	01H
	DB	0ffH
	DB	087H
	DB	064H
	DB	01H
	DB	0ffH
	DB	087H
	DB	064H
	DB	01H
	DB	0ffH
	DB	087H
	DB	064H
	DB	01H
	DB	0ffH
	DB	087H
	DB	064H
	DB	01H
	DB	0ffH
	DB	087H
	DB	064H
	DB	01H
	DB	0ffH
	DB	087H
	DB	064H
	DB	01H
	DB	0ffH
	DB	087H
	DB	064H
	DB	01H
	DB	0ffH
	DB	086H
	DB	064H
	DB	01H
	DB	0ffH
	DB	086H
	DB	063H
	DB	01H
	DB	0ffH
	DB	084H
	DB	062H
	DB	01H
	DB	0ffH
	DB	081H
	DB	05fH
	DB	01H
	DB	0ffH
	DB	07aH
	DB	05bH
	DB	01H
	DB	0ffH
	DB	070H
	DB	054H
	DB	01H
	DB	0ffH
	DB	063H
	DB	049H
	DB	01H
	DB	0ffH
	DB	056H
	DB	040H
	DB	01H
	DB	058H
	DB	00H
	DB	00H
	DB	00H
	DB	00H
	DB	00H
	DB	00H
	DB	00H
	DB	00H
	DB	00H
	DB	00H
	DB	00H
	DB	00H
	DB	00H
	DB	00H
	DB	00H
	DB	00H
	DB	00H
	DB	00H
	DB	00H
	DB	00H
	DB	00H
	DB	00H
	DB	00H
	DB	00H
	DB	00H
	DB	00H
	DB	00H
	DB	00H
	DB	00H
	DB	00H
	DB	00H
	DB	00H
	DB	00H
	DB	00H
	DB	00H
	DB	00H
	DB	00H
	DB	00H
	DB	00H
	DB	00H
	DB	00H
	DB	00H
	DB	00H
	DB	00H
	DB	00H
	DB	00H
	DB	00H
	DB	00H
	DB	00H
	DB	00H
	DB	00H
	DB	00H
	DB	00H
	DB	00H
	DB	00H
	DB	00H
	DB	00H
	DB	00H
	DB	00H
	DB	00H
	DB	00H
	DB	00H
	DB	00H
	DB	00H
	DB	00H
	DB	00H
	DB	00H
	DB	00H
	DB	053H
	DB	03dH
	DB	01H
	DB	01aH
	DB	060H
	DB	048H
	DB	02H
	DB	0f0H
	DB	06eH
	DB	052H
	DB	01H
	DB	0ffH
	DB	079H
	DB	059H
	DB	01H
	DB	0ffH
	DB	07fH
	DB	05fH
	DB	01H
	DB	0ffH
	DB	084H
	DB	062H
	DB	01H
	DB	0ffH
	DB	086H
	DB	063H
	DB	01H
	DB	0ffH
	DB	086H
	DB	064H
	DB	01H
	DB	0ffH
	DB	087H
	DB	064H
	DB	01H
	DB	0ffH
	DB	087H
	DB	064H
	DB	01H
	DB	0ffH
	DB	087H
	DB	064H
	DB	01H
	DB	0ffH
	DB	087H
	DB	064H
	DB	01H
	DB	0ffH
	DB	087H
	DB	064H
	DB	01H
	DB	0ffH
	DB	087H
	DB	064H
	DB	01H
	DB	0ffH
	DB	087H
	DB	064H
	DB	01H
	DB	0ffH
	DB	087H
	DB	064H
	DB	01H
	DB	0ffH
	DB	087H
	DB	064H
	DB	01H
	DB	0ffH
	DB	087H
	DB	064H
	DB	01H
	DB	0ffH
	DB	087H
	DB	064H
	DB	01H
	DB	0ffH
	DB	087H
	DB	064H
	DB	01H
	DB	0ffH
	DB	087H
	DB	064H
	DB	01H
	DB	0ffH
	DB	087H
	DB	064H
	DB	01H
	DB	0ffH
	DB	087H
	DB	064H
	DB	01H
	DB	0ffH
	DB	087H
	DB	064H
	DB	01H
	DB	0ffH
	DB	087H
	DB	064H
	DB	01H
	DB	0ffH
	DB	087H
	DB	064H
	DB	01H
	DB	0ffH
	DB	087H
	DB	064H
	DB	01H
	DB	0ffH
	DB	087H
	DB	064H
	DB	01H
	DB	0ffH
	DB	087H
	DB	064H
	DB	01H
	DB	0ffH
	DB	087H
	DB	064H
	DB	01H
	DB	0ffH
	DB	087H
	DB	064H
	DB	01H
	DB	0ffH
	DB	087H
	DB	064H
	DB	01H
	DB	0ffH
	DB	087H
	DB	064H
	DB	01H
	DB	0ffH
	DB	087H
	DB	064H
	DB	01H
	DB	0ffH
	DB	087H
	DB	064H
	DB	01H
	DB	0ffH
	DB	087H
	DB	064H
	DB	01H
	DB	0ffH
	DB	086H
	DB	064H
	DB	01H
	DB	0ffH
	DB	086H
	DB	063H
	DB	01H
	DB	0ffH
	DB	084H
	DB	062H
	DB	01H
	DB	0ffH
	DB	07fH
	DB	05fH
	DB	01H
	DB	0ffH
	DB	079H
	DB	059H
	DB	01H
	DB	0ffH
	DB	06eH
	DB	052H
	DB	01H
	DB	0ffH
	DB	060H
	DB	048H
	DB	02H
	DB	0f0H
	DB	053H
	DB	03dH
	DB	01H
	DB	01aH
	DB	00H
	DB	00H
	DB	00H
	DB	00H
	DB	00H
	DB	00H
	DB	00H
	DB	00H
	DB	00H
	DB	00H
	DB	00H
	DB	00H
	DB	00H
	DB	00H
	DB	00H
	DB	00H
	DB	00H
	DB	00H
	DB	00H
	DB	00H
	DB	00H
	DB	00H
	DB	00H
	DB	00H
	DB	00H
	DB	00H
	DB	00H
	DB	00H
	DB	00H
	DB	00H
	DB	00H
	DB	00H
	DB	00H
	DB	00H
	DB	00H
	DB	00H
	DB	00H
	DB	00H
	DB	00H
	DB	00H
	DB	00H
	DB	00H
	DB	00H
	DB	00H
	DB	00H
	DB	00H
	DB	00H
	DB	00H
	DB	00H
	DB	00H
	DB	00H
	DB	00H
	DB	00H
	DB	00H
	DB	00H
	DB	00H
	DB	00H
	DB	00H
	DB	00H
	DB	00H
	DB	00H
	DB	00H
	DB	00H
	DB	00H
	DB	05cH
	DB	044H
	DB	04H
	DB	0a7H
	DB	06aH
	DB	04eH
	DB	01H
	DB	0ffH
	DB	078H
	DB	058H
	DB	01H
	DB	0ffH
	DB	080H
	DB	05fH
	DB	01H
	DB	0ffH
	DB	085H
	DB	062H
	DB	01H
	DB	0ffH
	DB	087H
	DB	063H
	DB	01H
	DB	0ffH
	DB	087H
	DB	064H
	DB	01H
	DB	0ffH
	DB	088H
	DB	064H
	DB	01H
	DB	0ffH
	DB	088H
	DB	064H
	DB	01H
	DB	0ffH
	DB	088H
	DB	064H
	DB	01H
	DB	0ffH
	DB	088H
	DB	064H
	DB	01H
	DB	0ffH
	DB	088H
	DB	064H
	DB	01H
	DB	0ffH
	DB	088H
	DB	064H
	DB	01H
	DB	0ffH
	DB	088H
	DB	064H
	DB	01H
	DB	0ffH
	DB	088H
	DB	064H
	DB	01H
	DB	0ffH
	DB	088H
	DB	064H
	DB	01H
	DB	0ffH
	DB	088H
	DB	064H
	DB	01H
	DB	0ffH
	DB	088H
	DB	064H
	DB	01H
	DB	0ffH
	DB	088H
	DB	064H
	DB	01H
	DB	0ffH
	DB	088H
	DB	064H
	DB	01H
	DB	0ffH
	DB	088H
	DB	064H
	DB	01H
	DB	0ffH
	DB	088H
	DB	064H
	DB	01H
	DB	0ffH
	DB	088H
	DB	064H
	DB	01H
	DB	0ffH
	DB	088H
	DB	064H
	DB	01H
	DB	0ffH
	DB	088H
	DB	064H
	DB	01H
	DB	0ffH
	DB	088H
	DB	064H
	DB	01H
	DB	0ffH
	DB	088H
	DB	064H
	DB	01H
	DB	0ffH
	DB	088H
	DB	064H
	DB	01H
	DB	0ffH
	DB	088H
	DB	064H
	DB	01H
	DB	0ffH
	DB	088H
	DB	064H
	DB	01H
	DB	0ffH
	DB	088H
	DB	064H
	DB	01H
	DB	0ffH
	DB	088H
	DB	064H
	DB	01H
	DB	0ffH
	DB	088H
	DB	064H
	DB	01H
	DB	0ffH
	DB	088H
	DB	064H
	DB	01H
	DB	0ffH
	DB	088H
	DB	064H
	DB	01H
	DB	0ffH
	DB	088H
	DB	064H
	DB	01H
	DB	0ffH
	DB	088H
	DB	064H
	DB	01H
	DB	0ffH
	DB	087H
	DB	064H
	DB	01H
	DB	0ffH
	DB	087H
	DB	063H
	DB	01H
	DB	0ffH
	DB	085H
	DB	062H
	DB	01H
	DB	0ffH
	DB	080H
	DB	05fH
	DB	01H
	DB	0ffH
	DB	078H
	DB	058H
	DB	01H
	DB	0ffH
	DB	06aH
	DB	04eH
	DB	01H
	DB	0ffH
	DB	05cH
	DB	044H
	DB	04H
	DB	0a7H
	DB	00H
	DB	00H
	DB	00H
	DB	00H
	DB	00H
	DB	00H
	DB	00H
	DB	00H
	DB	00H
	DB	00H
	DB	00H
	DB	00H
	DB	00H
	DB	00H
	DB	00H
	DB	00H
	DB	00H
	DB	00H
	DB	00H
	DB	00H
	DB	00H
	DB	00H
	DB	00H
	DB	00H
	DB	00H
	DB	00H
	DB	00H
	DB	00H
	DB	00H
	DB	00H
	DB	00H
	DB	00H
	DB	00H
	DB	00H
	DB	00H
	DB	00H
	DB	00H
	DB	00H
	DB	00H
	DB	00H
	DB	00H
	DB	00H
	DB	00H
	DB	00H
	DB	00H
	DB	00H
	DB	00H
	DB	00H
	DB	00H
	DB	00H
	DB	00H
	DB	00H
	DB	00H
	DB	00H
	DB	00H
	DB	00H
	DB	00H
	DB	00H
	DB	00H
	DB	00H
	DB	055H
	DB	040H
	DB	01H
	DB	032H
	DB	065H
	DB	04bH
	DB	01H
	DB	0feH
	DB	073H
	DB	056H
	DB	01H
	DB	0ffH
	DB	07eH
	DB	05dH
	DB	01H
	DB	0ffH
	DB	084H
	DB	062H
	DB	01H
	DB	0ffH
	DB	086H
	DB	064H
	DB	01H
	DB	0ffH
	DB	087H
	DB	065H
	DB	01H
	DB	0ffH
	DB	088H
	DB	065H
	DB	01H
	DB	0ffH
	DB	088H
	DB	065H
	DB	01H
	DB	0ffH
	DB	088H
	DB	065H
	DB	01H
	DB	0ffH
	DB	088H
	DB	065H
	DB	01H
	DB	0ffH
	DB	088H
	DB	065H
	DB	01H
	DB	0ffH
	DB	088H
	DB	065H
	DB	01H
	DB	0ffH
	DB	088H
	DB	065H
	DB	01H
	DB	0ffH
	DB	088H
	DB	065H
	DB	01H
	DB	0ffH
	DB	088H
	DB	065H
	DB	01H
	DB	0ffH
	DB	088H
	DB	065H
	DB	01H
	DB	0ffH
	DB	088H
	DB	065H
	DB	01H
	DB	0ffH
	DB	088H
	DB	065H
	DB	01H
	DB	0ffH
	DB	088H
	DB	065H
	DB	01H
	DB	0ffH
	DB	088H
	DB	065H
	DB	01H
	DB	0ffH
	DB	088H
	DB	065H
	DB	01H
	DB	0ffH
	DB	088H
	DB	065H
	DB	01H
	DB	0ffH
	DB	088H
	DB	065H
	DB	01H
	DB	0ffH
	DB	088H
	DB	065H
	DB	01H
	DB	0ffH
	DB	088H
	DB	065H
	DB	01H
	DB	0ffH
	DB	088H
	DB	065H
	DB	01H
	DB	0ffH
	DB	088H
	DB	065H
	DB	01H
	DB	0ffH
	DB	088H
	DB	065H
	DB	01H
	DB	0ffH
	DB	088H
	DB	065H
	DB	01H
	DB	0ffH
	DB	088H
	DB	065H
	DB	01H
	DB	0ffH
	DB	088H
	DB	065H
	DB	01H
	DB	0ffH
	DB	088H
	DB	065H
	DB	01H
	DB	0ffH
	DB	088H
	DB	065H
	DB	01H
	DB	0ffH
	DB	088H
	DB	065H
	DB	01H
	DB	0ffH
	DB	088H
	DB	065H
	DB	01H
	DB	0ffH
	DB	088H
	DB	065H
	DB	01H
	DB	0ffH
	DB	088H
	DB	065H
	DB	01H
	DB	0ffH
	DB	088H
	DB	065H
	DB	01H
	DB	0ffH
	DB	087H
	DB	065H
	DB	01H
	DB	0ffH
	DB	086H
	DB	064H
	DB	01H
	DB	0ffH
	DB	084H
	DB	062H
	DB	01H
	DB	0ffH
	DB	07eH
	DB	05dH
	DB	01H
	DB	0ffH
	DB	073H
	DB	056H
	DB	01H
	DB	0ffH
	DB	065H
	DB	04bH
	DB	01H
	DB	0feH
	DB	055H
	DB	040H
	DB	01H
	DB	032H
	DB	00H
	DB	00H
	DB	00H
	DB	00H
	DB	00H
	DB	00H
	DB	00H
	DB	00H
	DB	00H
	DB	00H
	DB	00H
	DB	00H
	DB	00H
	DB	00H
	DB	00H
	DB	00H
	DB	00H
	DB	00H
	DB	00H
	DB	00H
	DB	00H
	DB	00H
	DB	00H
	DB	00H
	DB	00H
	DB	00H
	DB	00H
	DB	00H
	DB	00H
	DB	00H
	DB	00H
	DB	00H
	DB	00H
	DB	00H
	DB	00H
	DB	00H
	DB	00H
	DB	00H
	DB	00H
	DB	00H
	DB	00H
	DB	00H
	DB	00H
	DB	00H
	DB	00H
	DB	00H
	DB	00H
	DB	00H
	DB	00H
	DB	00H
	DB	00H
	DB	00H
	DB	00H
	DB	00H
	DB	00H
	DB	00H
	DB	060H
	DB	047H
	DB	05H
	DB	0b3H
	DB	06eH
	DB	051H
	DB	01H
	DB	0ffH
	DB	07bH
	DB	05bH
	DB	01H
	DB	0ffH
	DB	084H
	DB	061H
	DB	01H
	DB	0ffH
	DB	087H
	DB	063H
	DB	01H
	DB	0ffH
	DB	088H
	DB	065H
	DB	01H
	DB	0ffH
	DB	089H
	DB	065H
	DB	01H
	DB	0ffH
	DB	089H
	DB	065H
	DB	01H
	DB	0ffH
	DB	089H
	DB	065H
	DB	01H
	DB	0ffH
	DB	089H
	DB	065H
	DB	01H
	DB	0ffH
	DB	089H
	DB	065H
	DB	01H
	DB	0ffH
	DB	089H
	DB	065H
	DB	01H
	DB	0ffH
	DB	089H
	DB	065H
	DB	01H
	DB	0ffH
	DB	089H
	DB	065H
	DB	01H
	DB	0ffH
	DB	089H
	DB	065H
	DB	01H
	DB	0ffH
	DB	089H
	DB	065H
	DB	01H
	DB	0ffH
	DB	089H
	DB	065H
	DB	01H
	DB	0ffH
	DB	089H
	DB	065H
	DB	01H
	DB	0ffH
	DB	089H
	DB	065H
	DB	01H
	DB	0ffH
	DB	089H
	DB	065H
	DB	01H
	DB	0ffH
	DB	089H
	DB	065H
	DB	01H
	DB	0ffH
	DB	089H
	DB	065H
	DB	01H
	DB	0ffH
	DB	089H
	DB	065H
	DB	01H
	DB	0ffH
	DB	089H
	DB	065H
	DB	01H
	DB	0ffH
	DB	089H
	DB	065H
	DB	01H
	DB	0ffH
	DB	089H
	DB	065H
	DB	01H
	DB	0ffH
	DB	089H
	DB	065H
	DB	01H
	DB	0ffH
	DB	089H
	DB	065H
	DB	01H
	DB	0ffH
	DB	089H
	DB	065H
	DB	01H
	DB	0ffH
	DB	089H
	DB	065H
	DB	01H
	DB	0ffH
	DB	089H
	DB	065H
	DB	01H
	DB	0ffH
	DB	089H
	DB	065H
	DB	01H
	DB	0ffH
	DB	089H
	DB	065H
	DB	01H
	DB	0ffH
	DB	089H
	DB	065H
	DB	01H
	DB	0ffH
	DB	089H
	DB	065H
	DB	01H
	DB	0ffH
	DB	089H
	DB	065H
	DB	01H
	DB	0ffH
	DB	089H
	DB	065H
	DB	01H
	DB	0ffH
	DB	089H
	DB	065H
	DB	01H
	DB	0ffH
	DB	089H
	DB	065H
	DB	01H
	DB	0ffH
	DB	089H
	DB	065H
	DB	01H
	DB	0ffH
	DB	088H
	DB	065H
	DB	01H
	DB	0ffH
	DB	087H
	DB	063H
	DB	01H
	DB	0ffH
	DB	084H
	DB	061H
	DB	01H
	DB	0ffH
	DB	07bH
	DB	05bH
	DB	01H
	DB	0ffH
	DB	06eH
	DB	051H
	DB	01H
	DB	0ffH
	DB	060H
	DB	047H
	DB	05H
	DB	0b3H
	DB	00H
	DB	00H
	DB	00H
	DB	00H
	DB	00H
	DB	00H
	DB	00H
	DB	00H
	DB	00H
	DB	00H
	DB	00H
	DB	00H
	DB	00H
	DB	00H
	DB	00H
	DB	00H
	DB	00H
	DB	00H
	DB	00H
	DB	00H
	DB	00H
	DB	00H
	DB	00H
	DB	00H
	DB	00H
	DB	00H
	DB	00H
	DB	00H
	DB	00H
	DB	00H
	DB	00H
	DB	00H
	DB	00H
	DB	00H
	DB	00H
	DB	00H
	DB	00H
	DB	00H
	DB	00H
	DB	00H
	DB	00H
	DB	00H
	DB	00H
	DB	00H
	DB	00H
	DB	00H
	DB	00H
	DB	00H
	DB	00H
	DB	00H
	DB	00H
	DB	00H
	DB	054H
	DB	03dH
	DB	01H
	DB	01fH
	DB	066H
	DB	04bH
	DB	01H
	DB	0fdH
	DB	076H
	DB	057H
	DB	01H
	DB	0ffH
	DB	081H
	DB	05fH
	DB	01H
	DB	0ffH
	DB	086H
	DB	063H
	DB	01H
	DB	0ffH
	DB	088H
	DB	065H
	DB	01H
	DB	0ffH
	DB	089H
	DB	065H
	DB	01H
	DB	0ffH
	DB	089H
	DB	065H
	DB	01H
	DB	0ffH
	DB	089H
	DB	065H
	DB	01H
	DB	0ffH
	DB	089H
	DB	065H
	DB	01H
	DB	0ffH
	DB	089H
	DB	065H
	DB	01H
	DB	0ffH
	DB	089H
	DB	065H
	DB	01H
	DB	0ffH
	DB	089H
	DB	065H
	DB	01H
	DB	0ffH
	DB	089H
	DB	065H
	DB	01H
	DB	0ffH
	DB	089H
	DB	065H
	DB	01H
	DB	0ffH
	DB	089H
	DB	065H
	DB	01H
	DB	0ffH
	DB	089H
	DB	065H
	DB	01H
	DB	0ffH
	DB	089H
	DB	065H
	DB	01H
	DB	0ffH
	DB	089H
	DB	065H
	DB	01H
	DB	0ffH
	DB	089H
	DB	065H
	DB	01H
	DB	0ffH
	DB	089H
	DB	065H
	DB	01H
	DB	0ffH
	DB	089H
	DB	065H
	DB	01H
	DB	0ffH
	DB	089H
	DB	065H
	DB	01H
	DB	0ffH
	DB	089H
	DB	065H
	DB	01H
	DB	0ffH
	DB	089H
	DB	065H
	DB	01H
	DB	0ffH
	DB	089H
	DB	065H
	DB	01H
	DB	0ffH
	DB	089H
	DB	065H
	DB	01H
	DB	0ffH
	DB	089H
	DB	065H
	DB	01H
	DB	0ffH
	DB	089H
	DB	065H
	DB	01H
	DB	0ffH
	DB	089H
	DB	065H
	DB	01H
	DB	0ffH
	DB	089H
	DB	065H
	DB	01H
	DB	0ffH
	DB	089H
	DB	065H
	DB	01H
	DB	0ffH
	DB	089H
	DB	065H
	DB	01H
	DB	0ffH
	DB	089H
	DB	065H
	DB	01H
	DB	0ffH
	DB	089H
	DB	065H
	DB	01H
	DB	0ffH
	DB	089H
	DB	065H
	DB	01H
	DB	0ffH
	DB	089H
	DB	065H
	DB	01H
	DB	0ffH
	DB	089H
	DB	065H
	DB	01H
	DB	0ffH
	DB	089H
	DB	065H
	DB	01H
	DB	0ffH
	DB	089H
	DB	065H
	DB	01H
	DB	0ffH
	DB	089H
	DB	065H
	DB	01H
	DB	0ffH
	DB	089H
	DB	065H
	DB	01H
	DB	0ffH
	DB	088H
	DB	065H
	DB	01H
	DB	0ffH
	DB	086H
	DB	063H
	DB	01H
	DB	0ffH
	DB	081H
	DB	05fH
	DB	01H
	DB	0ffH
	DB	076H
	DB	057H
	DB	01H
	DB	0ffH
	DB	066H
	DB	04bH
	DB	01H
	DB	0fdH
	DB	054H
	DB	03eH
	DB	01H
	DB	021H
	DB	00H
	DB	00H
	DB	00H
	DB	00H
	DB	00H
	DB	00H
	DB	00H
	DB	00H
	DB	00H
	DB	00H
	DB	00H
	DB	00H
	DB	00H
	DB	00H
	DB	00H
	DB	00H
	DB	00H
	DB	00H
	DB	00H
	DB	00H
	DB	00H
	DB	00H
	DB	00H
	DB	00H
	DB	00H
	DB	00H
	DB	00H
	DB	00H
	DB	00H
	DB	00H
	DB	00H
	DB	00H
	DB	00H
	DB	00H
	DB	00H
	DB	00H
	DB	00H
	DB	00H
	DB	00H
	DB	00H
	DB	00H
	DB	00H
	DB	00H
	DB	00H
	DB	00H
	DB	00H
	DB	00H
	DB	00H
	DB	060H
	DB	048H
	DB	07H
	DB	07eH
	DB	06dH
	DB	051H
	DB	01H
	DB	0ffH
	DB	07dH
	DB	05dH
	DB	01H
	DB	0ffH
	DB	085H
	DB	062H
	DB	01H
	DB	0ffH
	DB	088H
	DB	065H
	DB	01H
	DB	0ffH
	DB	089H
	DB	066H
	DB	01H
	DB	0ffH
	DB	08aH
	DB	066H
	DB	01H
	DB	0ffH
	DB	08aH
	DB	066H
	DB	01H
	DB	0ffH
	DB	08aH
	DB	066H
	DB	01H
	DB	0ffH
	DB	08aH
	DB	066H
	DB	01H
	DB	0ffH
	DB	08aH
	DB	066H
	DB	01H
	DB	0ffH
	DB	08aH
	DB	066H
	DB	01H
	DB	0ffH
	DB	08aH
	DB	066H
	DB	01H
	DB	0ffH
	DB	08aH
	DB	066H
	DB	01H
	DB	0ffH
	DB	08aH
	DB	066H
	DB	01H
	DB	0ffH
	DB	08aH
	DB	066H
	DB	01H
	DB	0ffH
	DB	08aH
	DB	066H
	DB	01H
	DB	0ffH
	DB	08aH
	DB	066H
	DB	01H
	DB	0ffH
	DB	08aH
	DB	066H
	DB	01H
	DB	0ffH
	DB	08aH
	DB	066H
	DB	01H
	DB	0ffH
	DB	08aH
	DB	066H
	DB	01H
	DB	0ffH
	DB	08aH
	DB	066H
	DB	01H
	DB	0ffH
	DB	08aH
	DB	066H
	DB	01H
	DB	0ffH
	DB	08aH
	DB	066H
	DB	01H
	DB	0ffH
	DB	08aH
	DB	066H
	DB	01H
	DB	0ffH
	DB	08aH
	DB	066H
	DB	01H
	DB	0ffH
	DB	08aH
	DB	066H
	DB	01H
	DB	0ffH
	DB	08aH
	DB	066H
	DB	01H
	DB	0ffH
	DB	08aH
	DB	066H
	DB	01H
	DB	0ffH
	DB	08aH
	DB	066H
	DB	01H
	DB	0ffH
	DB	08aH
	DB	066H
	DB	01H
	DB	0ffH
	DB	08aH
	DB	066H
	DB	01H
	DB	0ffH
	DB	08aH
	DB	066H
	DB	01H
	DB	0ffH
	DB	08aH
	DB	066H
	DB	01H
	DB	0ffH
	DB	08aH
	DB	066H
	DB	01H
	DB	0ffH
	DB	08aH
	DB	066H
	DB	01H
	DB	0ffH
	DB	08aH
	DB	066H
	DB	01H
	DB	0ffH
	DB	08aH
	DB	066H
	DB	01H
	DB	0ffH
	DB	08aH
	DB	066H
	DB	01H
	DB	0ffH
	DB	08aH
	DB	066H
	DB	01H
	DB	0ffH
	DB	08aH
	DB	066H
	DB	01H
	DB	0ffH
	DB	08aH
	DB	066H
	DB	01H
	DB	0ffH
	DB	089H
	DB	066H
	DB	01H
	DB	0ffH
	DB	088H
	DB	065H
	DB	01H
	DB	0ffH
	DB	085H
	DB	062H
	DB	01H
	DB	0ffH
	DB	07dH
	DB	05dH
	DB	01H
	DB	0ffH
	DB	06fH
	DB	052H
	DB	01H
	DB	0ffH
	DB	060H
	DB	048H
	DB	07H
	DB	085H
	DB	00H
	DB	00H
	DB	00H
	DB	00H
	DB	00H
	DB	00H
	DB	00H
	DB	00H
	DB	00H
	DB	00H
	DB	00H
	DB	00H
	DB	00H
	DB	00H
	DB	00H
	DB	00H
	DB	00H
	DB	00H
	DB	00H
	DB	00H
	DB	00H
	DB	00H
	DB	00H
	DB	00H
	DB	00H
	DB	00H
	DB	00H
	DB	00H
	DB	00H
	DB	00H
	DB	00H
	DB	00H
	DB	00H
	DB	00H
	DB	00H
	DB	00H
	DB	00H
	DB	00H
	DB	00H
	DB	00H
	DB	00H
	DB	00H
	DB	00H
	DB	00H
	DB	00H
	DB	00H
	DB	00H
	DB	00H
	DB	066H
	DB	04dH
	DB	06H
	DB	0daH
	DB	074H
	DB	056H
	DB	01H
	DB	0ffH
	DB	081H
	DB	05fH
	DB	01H
	DB	0ffH
	DB	087H
	DB	064H
	DB	01H
	DB	0ffH
	DB	089H
	DB	066H
	DB	01H
	DB	0ffH
	DB	08aH
	DB	066H
	DB	01H
	DB	0ffH
	DB	08aH
	DB	066H
	DB	01H
	DB	0ffH
	DB	08aH
	DB	066H
	DB	01H
	DB	0ffH
	DB	08aH
	DB	066H
	DB	01H
	DB	0ffH
	DB	08aH
	DB	066H
	DB	01H
	DB	0ffH
	DB	08aH
	DB	066H
	DB	01H
	DB	0ffH
	DB	08aH
	DB	066H
	DB	01H
	DB	0ffH
	DB	08aH
	DB	066H
	DB	01H
	DB	0ffH
	DB	08aH
	DB	066H
	DB	01H
	DB	0ffH
	DB	08aH
	DB	066H
	DB	01H
	DB	0ffH
	DB	08aH
	DB	066H
	DB	01H
	DB	0ffH
	DB	08aH
	DB	066H
	DB	01H
	DB	0ffH
	DB	08aH
	DB	066H
	DB	01H
	DB	0ffH
	DB	08aH
	DB	066H
	DB	01H
	DB	0ffH
	DB	08aH
	DB	066H
	DB	01H
	DB	0ffH
	DB	08aH
	DB	066H
	DB	01H
	DB	0ffH
	DB	08aH
	DB	066H
	DB	01H
	DB	0ffH
	DB	08aH
	DB	066H
	DB	01H
	DB	0ffH
	DB	08aH
	DB	066H
	DB	01H
	DB	0ffH
	DB	08aH
	DB	066H
	DB	01H
	DB	0ffH
	DB	08aH
	DB	066H
	DB	01H
	DB	0ffH
	DB	08aH
	DB	066H
	DB	01H
	DB	0ffH
	DB	08aH
	DB	066H
	DB	01H
	DB	0ffH
	DB	08aH
	DB	066H
	DB	01H
	DB	0ffH
	DB	08aH
	DB	066H
	DB	01H
	DB	0ffH
	DB	08aH
	DB	066H
	DB	01H
	DB	0ffH
	DB	08aH
	DB	066H
	DB	01H
	DB	0ffH
	DB	08aH
	DB	066H
	DB	01H
	DB	0ffH
	DB	08aH
	DB	066H
	DB	01H
	DB	0ffH
	DB	08aH
	DB	066H
	DB	01H
	DB	0ffH
	DB	08aH
	DB	066H
	DB	01H
	DB	0ffH
	DB	08aH
	DB	066H
	DB	01H
	DB	0ffH
	DB	08aH
	DB	066H
	DB	01H
	DB	0ffH
	DB	08aH
	DB	066H
	DB	01H
	DB	0ffH
	DB	08aH
	DB	066H
	DB	01H
	DB	0ffH
	DB	08aH
	DB	066H
	DB	01H
	DB	0ffH
	DB	08aH
	DB	066H
	DB	01H
	DB	0ffH
	DB	08aH
	DB	066H
	DB	01H
	DB	0ffH
	DB	089H
	DB	066H
	DB	01H
	DB	0ffH
	DB	087H
	DB	064H
	DB	01H
	DB	0ffH
	DB	081H
	DB	05fH
	DB	01H
	DB	0ffH
	DB	074H
	DB	056H
	DB	01H
	DB	0ffH
	DB	065H
	DB	04bH
	DB	04H
	DB	0dcH
	DB	00H
	DB	00H
	DB	00H
	DB	00H
	DB	00H
	DB	00H
	DB	00H
	DB	00H
	DB	00H
	DB	00H
	DB	00H
	DB	00H
	DB	00H
	DB	00H
	DB	00H
	DB	00H
	DB	00H
	DB	00H
	DB	00H
	DB	00H
	DB	00H
	DB	00H
	DB	00H
	DB	00H
	DB	00H
	DB	00H
	DB	00H
	DB	00H
	DB	00H
	DB	00H
	DB	00H
	DB	00H
	DB	00H
	DB	00H
	DB	00H
	DB	00H
	DB	00H
	DB	00H
	DB	00H
	DB	00H
	DB	00H
	DB	00H
	DB	00H
	DB	00H
	DB	056H
	DB	03fH
	DB	01H
	DB	01dH
	DB	06aH
	DB	04dH
	DB	01H
	DB	0ffH
	DB	07bH
	DB	05aH
	DB	01H
	DB	0ffH
	DB	085H
	DB	062H
	DB	01H
	DB	0ffH
	DB	089H
	DB	065H
	DB	01H
	DB	0ffH
	DB	08bH
	DB	066H
	DB	01H
	DB	0ffH
	DB	08bH
	DB	066H
	DB	01H
	DB	0ffH
	DB	08bH
	DB	066H
	DB	01H
	DB	0ffH
	DB	08bH
	DB	066H
	DB	01H
	DB	0ffH
	DB	08bH
	DB	066H
	DB	01H
	DB	0ffH
	DB	08bH
	DB	066H
	DB	01H
	DB	0ffH
	DB	08bH
	DB	066H
	DB	01H
	DB	0ffH
	DB	08bH
	DB	066H
	DB	01H
	DB	0ffH
	DB	08bH
	DB	066H
	DB	01H
	DB	0ffH
	DB	08bH
	DB	066H
	DB	01H
	DB	0ffH
	DB	08bH
	DB	066H
	DB	01H
	DB	0ffH
	DB	08bH
	DB	066H
	DB	01H
	DB	0ffH
	DB	08bH
	DB	066H
	DB	01H
	DB	0ffH
	DB	08bH
	DB	066H
	DB	01H
	DB	0ffH
	DB	08bH
	DB	066H
	DB	01H
	DB	0ffH
	DB	08bH
	DB	066H
	DB	01H
	DB	0ffH
	DB	08bH
	DB	066H
	DB	01H
	DB	0ffH
	DB	08bH
	DB	066H
	DB	01H
	DB	0ffH
	DB	08bH
	DB	066H
	DB	01H
	DB	0ffH
	DB	08bH
	DB	066H
	DB	01H
	DB	0ffH
	DB	08bH
	DB	066H
	DB	01H
	DB	0ffH
	DB	08bH
	DB	066H
	DB	01H
	DB	0ffH
	DB	08bH
	DB	066H
	DB	01H
	DB	0ffH
	DB	08bH
	DB	066H
	DB	01H
	DB	0ffH
	DB	08bH
	DB	066H
	DB	01H
	DB	0ffH
	DB	08bH
	DB	066H
	DB	01H
	DB	0ffH
	DB	08bH
	DB	066H
	DB	01H
	DB	0ffH
	DB	08bH
	DB	066H
	DB	01H
	DB	0ffH
	DB	08bH
	DB	066H
	DB	01H
	DB	0ffH
	DB	08bH
	DB	066H
	DB	01H
	DB	0ffH
	DB	08bH
	DB	066H
	DB	01H
	DB	0ffH
	DB	08bH
	DB	066H
	DB	01H
	DB	0ffH
	DB	08bH
	DB	066H
	DB	01H
	DB	0ffH
	DB	08bH
	DB	066H
	DB	01H
	DB	0ffH
	DB	08bH
	DB	066H
	DB	01H
	DB	0ffH
	DB	08bH
	DB	066H
	DB	01H
	DB	0ffH
	DB	08bH
	DB	066H
	DB	01H
	DB	0ffH
	DB	08bH
	DB	066H
	DB	01H
	DB	0ffH
	DB	08bH
	DB	066H
	DB	01H
	DB	0ffH
	DB	08bH
	DB	066H
	DB	01H
	DB	0ffH
	DB	089H
	DB	065H
	DB	01H
	DB	0ffH
	DB	085H
	DB	062H
	DB	01H
	DB	0ffH
	DB	07bH
	DB	05aH
	DB	01H
	DB	0ffH
	DB	06aH
	DB	04dH
	DB	01H
	DB	0ffH
	DB	056H
	DB	03fH
	DB	01H
	DB	022H
	DB	00H
	DB	00H
	DB	00H
	DB	00H
	DB	00H
	DB	00H
	DB	00H
	DB	00H
	DB	00H
	DB	00H
	DB	00H
	DB	00H
	DB	00H
	DB	00H
	DB	00H
	DB	00H
	DB	00H
	DB	00H
	DB	00H
	DB	00H
	DB	00H
	DB	00H
	DB	00H
	DB	00H
	DB	00H
	DB	00H
	DB	00H
	DB	00H
	DB	00H
	DB	00H
	DB	00H
	DB	00H
	DB	00H
	DB	00H
	DB	00H
	DB	00H
	DB	00H
	DB	00H
	DB	00H
	DB	00H
	DB	05fH
	DB	048H
	DB	09H
	DB	062H
	DB	06fH
	DB	052H
	DB	01H
	DB	0ffH
	DB	07eH
	DB	05dH
	DB	01H
	DB	0ffH
	DB	087H
	DB	064H
	DB	01H
	DB	0ffH
	DB	08aH
	DB	066H
	DB	01H
	DB	0ffH
	DB	08bH
	DB	067H
	DB	01H
	DB	0ffH
	DB	08bH
	DB	067H
	DB	01H
	DB	0ffH
	DB	08bH
	DB	067H
	DB	01H
	DB	0ffH
	DB	08bH
	DB	067H
	DB	01H
	DB	0ffH
	DB	08bH
	DB	067H
	DB	01H
	DB	0ffH
	DB	08bH
	DB	067H
	DB	01H
	DB	0ffH
	DB	08bH
	DB	067H
	DB	01H
	DB	0ffH
	DB	08bH
	DB	067H
	DB	01H
	DB	0ffH
	DB	08bH
	DB	067H
	DB	01H
	DB	0ffH
	DB	08bH
	DB	067H
	DB	01H
	DB	0ffH
	DB	08bH
	DB	067H
	DB	01H
	DB	0ffH
	DB	08bH
	DB	067H
	DB	01H
	DB	0ffH
	DB	08bH
	DB	067H
	DB	01H
	DB	0ffH
	DB	08bH
	DB	067H
	DB	01H
	DB	0ffH
	DB	08bH
	DB	067H
	DB	01H
	DB	0ffH
	DB	08bH
	DB	067H
	DB	01H
	DB	0ffH
	DB	08bH
	DB	067H
	DB	01H
	DB	0ffH
	DB	08bH
	DB	067H
	DB	01H
	DB	0ffH
	DB	08bH
	DB	067H
	DB	01H
	DB	0ffH
	DB	08bH
	DB	067H
	DB	01H
	DB	0ffH
	DB	08bH
	DB	067H
	DB	01H
	DB	0ffH
	DB	08bH
	DB	067H
	DB	01H
	DB	0ffH
	DB	08bH
	DB	067H
	DB	01H
	DB	0ffH
	DB	08bH
	DB	067H
	DB	01H
	DB	0ffH
	DB	08bH
	DB	067H
	DB	01H
	DB	0ffH
	DB	08bH
	DB	067H
	DB	01H
	DB	0ffH
	DB	08bH
	DB	067H
	DB	01H
	DB	0ffH
	DB	08bH
	DB	067H
	DB	01H
	DB	0ffH
	DB	08bH
	DB	067H
	DB	01H
	DB	0ffH
	DB	08bH
	DB	067H
	DB	01H
	DB	0ffH
	DB	08bH
	DB	067H
	DB	01H
	DB	0ffH
	DB	08bH
	DB	067H
	DB	01H
	DB	0ffH
	DB	08bH
	DB	067H
	DB	01H
	DB	0ffH
	DB	08bH
	DB	067H
	DB	01H
	DB	0ffH
	DB	08bH
	DB	067H
	DB	01H
	DB	0ffH
	DB	08bH
	DB	067H
	DB	01H
	DB	0ffH
	DB	08bH
	DB	067H
	DB	01H
	DB	0ffH
	DB	08bH
	DB	067H
	DB	01H
	DB	0ffH
	DB	08bH
	DB	067H
	DB	01H
	DB	0ffH
	DB	08bH
	DB	067H
	DB	01H
	DB	0ffH
	DB	08aH
	DB	067H
	DB	01H
	DB	0ffH
	DB	087H
	DB	064H
	DB	01H
	DB	0ffH
	DB	07eH
	DB	05dH
	DB	01H
	DB	0ffH
	DB	06fH
	DB	052H
	DB	01H
	DB	0ffH
	DB	060H
	DB	049H
	DB	0bH
	DB	067H
	DB	00H
	DB	00H
	DB	00H
	DB	00H
	DB	00H
	DB	00H
	DB	00H
	DB	00H
	DB	00H
	DB	00H
	DB	00H
	DB	00H
	DB	00H
	DB	00H
	DB	00H
	DB	00H
	DB	00H
	DB	00H
	DB	00H
	DB	00H
	DB	00H
	DB	00H
	DB	00H
	DB	00H
	DB	00H
	DB	00H
	DB	00H
	DB	00H
	DB	00H
	DB	00H
	DB	00H
	DB	00H
	DB	00H
	DB	00H
	DB	00H
	DB	00H
	DB	00H
	DB	00H
	DB	00H
	DB	00H
	DB	067H
	DB	04fH
	DB	0dH
	DB	09aH
	DB	075H
	DB	055H
	DB	01H
	DB	0ffH
	DB	082H
	DB	060H
	DB	01H
	DB	0ffH
	DB	089H
	DB	065H
	DB	01H
	DB	0ffH
	DB	08bH
	DB	067H
	DB	01H
	DB	0ffH
	DB	08cH
	DB	067H
	DB	01H
	DB	0ffH
	DB	08cH
	DB	067H
	DB	01H
	DB	0ffH
	DB	08cH
	DB	067H
	DB	01H
	DB	0ffH
	DB	08cH
	DB	067H
	DB	01H
	DB	0ffH
	DB	08cH
	DB	067H
	DB	01H
	DB	0ffH
	DB	08cH
	DB	067H
	DB	01H
	DB	0ffH
	DB	08cH
	DB	067H
	DB	01H
	DB	0ffH
	DB	08cH
	DB	067H
	DB	01H
	DB	0ffH
	DB	08cH
	DB	067H
	DB	01H
	DB	0ffH
	DB	08cH
	DB	067H
	DB	01H
	DB	0ffH
	DB	08cH
	DB	067H
	DB	01H
	DB	0ffH
	DB	08cH
	DB	067H
	DB	01H
	DB	0ffH
	DB	08cH
	DB	067H
	DB	01H
	DB	0ffH
	DB	08cH
	DB	067H
	DB	01H
	DB	0ffH
	DB	08cH
	DB	067H
	DB	01H
	DB	0ffH
	DB	08cH
	DB	067H
	DB	01H
	DB	0ffH
	DB	08cH
	DB	067H
	DB	01H
	DB	0ffH
	DB	08cH
	DB	067H
	DB	01H
	DB	0ffH
	DB	08cH
	DB	067H
	DB	01H
	DB	0ffH
	DB	08cH
	DB	067H
	DB	01H
	DB	0ffH
	DB	08cH
	DB	067H
	DB	01H
	DB	0ffH
	DB	08cH
	DB	067H
	DB	01H
	DB	0ffH
	DB	08cH
	DB	067H
	DB	01H
	DB	0ffH
	DB	08cH
	DB	067H
	DB	01H
	DB	0ffH
	DB	08cH
	DB	067H
	DB	01H
	DB	0ffH
	DB	08cH
	DB	067H
	DB	01H
	DB	0ffH
	DB	08cH
	DB	067H
	DB	01H
	DB	0ffH
	DB	08cH
	DB	067H
	DB	01H
	DB	0ffH
	DB	08cH
	DB	067H
	DB	01H
	DB	0ffH
	DB	08cH
	DB	067H
	DB	01H
	DB	0ffH
	DB	08cH
	DB	067H
	DB	01H
	DB	0ffH
	DB	08cH
	DB	067H
	DB	01H
	DB	0ffH
	DB	08cH
	DB	067H
	DB	01H
	DB	0ffH
	DB	08cH
	DB	067H
	DB	01H
	DB	0ffH
	DB	08cH
	DB	067H
	DB	01H
	DB	0ffH
	DB	08cH
	DB	067H
	DB	01H
	DB	0ffH
	DB	08cH
	DB	067H
	DB	01H
	DB	0ffH
	DB	08cH
	DB	067H
	DB	01H
	DB	0ffH
	DB	08cH
	DB	067H
	DB	01H
	DB	0ffH
	DB	08cH
	DB	067H
	DB	01H
	DB	0ffH
	DB	08bH
	DB	067H
	DB	01H
	DB	0ffH
	DB	089H
	DB	065H
	DB	01H
	DB	0ffH
	DB	082H
	DB	060H
	DB	01H
	DB	0ffH
	DB	075H
	DB	055H
	DB	01H
	DB	0ffH
	DB	067H
	DB	04fH
	DB	0eH
	DB	09bH
	DB	00H
	DB	00H
	DB	00H
	DB	00H
	DB	00H
	DB	00H
	DB	00H
	DB	00H
	DB	00H
	DB	00H
	DB	00H
	DB	00H
	DB	00H
	DB	00H
	DB	00H
	DB	00H
	DB	00H
	DB	00H
	DB	00H
	DB	00H
	DB	00H
	DB	00H
	DB	00H
	DB	00H
	DB	00H
	DB	00H
	DB	00H
	DB	00H
	DB	00H
	DB	00H
	DB	00H
	DB	00H
	DB	00H
	DB	00H
	DB	00H
	DB	00H
	DB	00H
	DB	00H
	DB	00H
	DB	00H
	DB	069H
	DB	050H
	DB	0aH
	DB	0c0H
	DB	077H
	DB	058H
	DB	01H
	DB	0ffH
	DB	084H
	DB	062H
	DB	01H
	DB	0ffH
	DB	08aH
	DB	066H
	DB	01H
	DB	0ffH
	DB	08cH
	DB	067H
	DB	01H
	DB	0ffH
	DB	08cH
	DB	067H
	DB	01H
	DB	0ffH
	DB	08cH
	DB	067H
	DB	01H
	DB	0ffH
	DB	08cH
	DB	067H
	DB	01H
	DB	0ffH
	DB	08cH
	DB	067H
	DB	01H
	DB	0ffH
	DB	08cH
	DB	067H
	DB	01H
	DB	0ffH
	DB	08cH
	DB	067H
	DB	01H
	DB	0ffH
	DB	08cH
	DB	067H
	DB	01H
	DB	0ffH
	DB	08cH
	DB	067H
	DB	01H
	DB	0ffH
	DB	08cH
	DB	067H
	DB	01H
	DB	0ffH
	DB	08cH
	DB	067H
	DB	01H
	DB	0ffH
	DB	08cH
	DB	067H
	DB	01H
	DB	0ffH
	DB	08cH
	DB	067H
	DB	01H
	DB	0ffH
	DB	08cH
	DB	067H
	DB	01H
	DB	0ffH
	DB	08cH
	DB	067H
	DB	01H
	DB	0ffH
	DB	08cH
	DB	067H
	DB	01H
	DB	0ffH
	DB	08cH
	DB	067H
	DB	01H
	DB	0ffH
	DB	08cH
	DB	067H
	DB	01H
	DB	0ffH
	DB	08cH
	DB	067H
	DB	01H
	DB	0ffH
	DB	08cH
	DB	067H
	DB	01H
	DB	0ffH
	DB	08cH
	DB	067H
	DB	01H
	DB	0ffH
	DB	08cH
	DB	067H
	DB	01H
	DB	0ffH
	DB	08cH
	DB	067H
	DB	01H
	DB	0ffH
	DB	08cH
	DB	067H
	DB	01H
	DB	0ffH
	DB	08cH
	DB	067H
	DB	01H
	DB	0ffH
	DB	08cH
	DB	067H
	DB	01H
	DB	0ffH
	DB	08cH
	DB	067H
	DB	01H
	DB	0ffH
	DB	08cH
	DB	067H
	DB	01H
	DB	0ffH
	DB	08cH
	DB	067H
	DB	01H
	DB	0ffH
	DB	08cH
	DB	067H
	DB	01H
	DB	0ffH
	DB	08cH
	DB	067H
	DB	01H
	DB	0ffH
	DB	08cH
	DB	067H
	DB	01H
	DB	0ffH
	DB	08cH
	DB	067H
	DB	01H
	DB	0ffH
	DB	08cH
	DB	067H
	DB	01H
	DB	0ffH
	DB	08cH
	DB	067H
	DB	01H
	DB	0ffH
	DB	08cH
	DB	067H
	DB	01H
	DB	0ffH
	DB	08cH
	DB	067H
	DB	01H
	DB	0ffH
	DB	08cH
	DB	067H
	DB	01H
	DB	0ffH
	DB	08cH
	DB	067H
	DB	01H
	DB	0ffH
	DB	08cH
	DB	067H
	DB	01H
	DB	0ffH
	DB	08cH
	DB	067H
	DB	01H
	DB	0ffH
	DB	08cH
	DB	067H
	DB	01H
	DB	0ffH
	DB	08aH
	DB	066H
	DB	01H
	DB	0ffH
	DB	084H
	DB	062H
	DB	01H
	DB	0ffH
	DB	077H
	DB	058H
	DB	01H
	DB	0ffH
	DB	069H
	DB	050H
	DB	0aH
	DB	0c1H
	DB	00H
	DB	00H
	DB	00H
	DB	00H
	DB	00H
	DB	00H
	DB	00H
	DB	00H
	DB	00H
	DB	00H
	DB	00H
	DB	00H
	DB	00H
	DB	00H
	DB	00H
	DB	00H
	DB	00H
	DB	00H
	DB	00H
	DB	00H
	DB	00H
	DB	00H
	DB	00H
	DB	00H
	DB	00H
	DB	00H
	DB	00H
	DB	00H
	DB	00H
	DB	00H
	DB	00H
	DB	00H
	DB	00H
	DB	00H
	DB	00H
	DB	00H
	DB	00H
	DB	00H
	DB	00H
	DB	00H
	DB	06cH
	DB	051H
	DB	07H
	DB	0e1H
	DB	07bH
	DB	05aH
	DB	01H
	DB	0ffH
	DB	087H
	DB	063H
	DB	01H
	DB	0ffH
	DB	08cH
	DB	067H
	DB	01H
	DB	0ffH
	DB	08dH
	DB	068H
	DB	01H
	DB	0ffH
	DB	08dH
	DB	068H
	DB	01H
	DB	0ffH
	DB	08dH
	DB	068H
	DB	01H
	DB	0ffH
	DB	08dH
	DB	068H
	DB	01H
	DB	0ffH
	DB	08dH
	DB	068H
	DB	01H
	DB	0ffH
	DB	08dH
	DB	068H
	DB	01H
	DB	0ffH
	DB	08dH
	DB	068H
	DB	01H
	DB	0ffH
	DB	08dH
	DB	068H
	DB	01H
	DB	0ffH
	DB	08dH
	DB	068H
	DB	01H
	DB	0ffH
	DB	08dH
	DB	068H
	DB	01H
	DB	0ffH
	DB	08dH
	DB	068H
	DB	01H
	DB	0ffH
	DB	08dH
	DB	068H
	DB	01H
	DB	0ffH
	DB	08dH
	DB	068H
	DB	01H
	DB	0ffH
	DB	08dH
	DB	068H
	DB	01H
	DB	0ffH
	DB	08dH
	DB	068H
	DB	01H
	DB	0ffH
	DB	08dH
	DB	068H
	DB	01H
	DB	0ffH
	DB	08dH
	DB	068H
	DB	01H
	DB	0ffH
	DB	08dH
	DB	068H
	DB	01H
	DB	0ffH
	DB	08dH
	DB	068H
	DB	01H
	DB	0ffH
	DB	08dH
	DB	068H
	DB	01H
	DB	0ffH
	DB	08dH
	DB	068H
	DB	01H
	DB	0ffH
	DB	08dH
	DB	068H
	DB	01H
	DB	0ffH
	DB	08dH
	DB	068H
	DB	01H
	DB	0ffH
	DB	08dH
	DB	068H
	DB	01H
	DB	0ffH
	DB	08dH
	DB	068H
	DB	01H
	DB	0ffH
	DB	08dH
	DB	068H
	DB	01H
	DB	0ffH
	DB	08dH
	DB	068H
	DB	01H
	DB	0ffH
	DB	08dH
	DB	068H
	DB	01H
	DB	0ffH
	DB	08dH
	DB	068H
	DB	01H
	DB	0ffH
	DB	08dH
	DB	068H
	DB	01H
	DB	0ffH
	DB	08dH
	DB	068H
	DB	01H
	DB	0ffH
	DB	08dH
	DB	068H
	DB	01H
	DB	0ffH
	DB	08dH
	DB	068H
	DB	01H
	DB	0ffH
	DB	08dH
	DB	068H
	DB	01H
	DB	0ffH
	DB	08dH
	DB	068H
	DB	01H
	DB	0ffH
	DB	08dH
	DB	068H
	DB	01H
	DB	0ffH
	DB	08dH
	DB	068H
	DB	01H
	DB	0ffH
	DB	08dH
	DB	068H
	DB	01H
	DB	0ffH
	DB	08dH
	DB	068H
	DB	01H
	DB	0ffH
	DB	08dH
	DB	068H
	DB	01H
	DB	0ffH
	DB	08dH
	DB	068H
	DB	01H
	DB	0ffH
	DB	08dH
	DB	068H
	DB	01H
	DB	0ffH
	DB	08cH
	DB	067H
	DB	01H
	DB	0ffH
	DB	087H
	DB	063H
	DB	01H
	DB	0ffH
	DB	07bH
	DB	05aH
	DB	01H
	DB	0ffH
	DB	06cH
	DB	051H
	DB	07H
	DB	0e1H
	DB	00H
	DB	00H
	DB	00H
	DB	00H
	DB	00H
	DB	00H
	DB	00H
	DB	00H
	DB	00H
	DB	00H
	DB	00H
	DB	00H
	DB	00H
	DB	00H
	DB	00H
	DB	00H
	DB	00H
	DB	00H
	DB	00H
	DB	00H
	DB	00H
	DB	00H
	DB	00H
	DB	00H
	DB	00H
	DB	00H
	DB	00H
	DB	00H
	DB	00H
	DB	00H
	DB	00H
	DB	00H
	DB	00H
	DB	00H
	DB	00H
	DB	00H
	DB	00H
	DB	00H
	DB	00H
	DB	00H
	DB	06dH
	DB	051H
	DB	03H
	DB	0f3H
	DB	07dH
	DB	05cH
	DB	01H
	DB	0ffH
	DB	088H
	DB	065H
	DB	01H
	DB	0ffH
	DB	08cH
	DB	068H
	DB	01H
	DB	0ffH
	DB	08dH
	DB	068H
	DB	01H
	DB	0ffH
	DB	08dH
	DB	068H
	DB	01H
	DB	0ffH
	DB	08dH
	DB	068H
	DB	01H
	DB	0ffH
	DB	08dH
	DB	068H
	DB	01H
	DB	0ffH
	DB	08dH
	DB	068H
	DB	01H
	DB	0ffH
	DB	08dH
	DB	068H
	DB	01H
	DB	0ffH
	DB	08dH
	DB	068H
	DB	01H
	DB	0ffH
	DB	08dH
	DB	068H
	DB	01H
	DB	0ffH
	DB	08dH
	DB	068H
	DB	01H
	DB	0ffH
	DB	08dH
	DB	068H
	DB	01H
	DB	0ffH
	DB	08dH
	DB	068H
	DB	01H
	DB	0ffH
	DB	08dH
	DB	068H
	DB	01H
	DB	0ffH
	DB	08dH
	DB	068H
	DB	01H
	DB	0ffH
	DB	08dH
	DB	068H
	DB	01H
	DB	0ffH
	DB	08dH
	DB	068H
	DB	01H
	DB	0ffH
	DB	08dH
	DB	068H
	DB	01H
	DB	0ffH
	DB	08dH
	DB	068H
	DB	01H
	DB	0ffH
	DB	08dH
	DB	068H
	DB	01H
	DB	0ffH
	DB	08dH
	DB	068H
	DB	01H
	DB	0ffH
	DB	08dH
	DB	068H
	DB	01H
	DB	0ffH
	DB	08dH
	DB	068H
	DB	01H
	DB	0ffH
	DB	08dH
	DB	068H
	DB	01H
	DB	0ffH
	DB	08dH
	DB	068H
	DB	01H
	DB	0ffH
	DB	08dH
	DB	068H
	DB	01H
	DB	0ffH
	DB	08dH
	DB	068H
	DB	01H
	DB	0ffH
	DB	08dH
	DB	068H
	DB	01H
	DB	0ffH
	DB	08dH
	DB	068H
	DB	01H
	DB	0ffH
	DB	08dH
	DB	068H
	DB	01H
	DB	0ffH
	DB	08dH
	DB	068H
	DB	01H
	DB	0ffH
	DB	08dH
	DB	068H
	DB	01H
	DB	0ffH
	DB	08dH
	DB	068H
	DB	01H
	DB	0ffH
	DB	08dH
	DB	068H
	DB	01H
	DB	0ffH
	DB	08dH
	DB	068H
	DB	01H
	DB	0ffH
	DB	08dH
	DB	068H
	DB	01H
	DB	0ffH
	DB	08dH
	DB	068H
	DB	01H
	DB	0ffH
	DB	08dH
	DB	068H
	DB	01H
	DB	0ffH
	DB	08dH
	DB	068H
	DB	01H
	DB	0ffH
	DB	08dH
	DB	068H
	DB	01H
	DB	0ffH
	DB	08dH
	DB	068H
	DB	01H
	DB	0ffH
	DB	08dH
	DB	068H
	DB	01H
	DB	0ffH
	DB	08dH
	DB	068H
	DB	01H
	DB	0ffH
	DB	08dH
	DB	068H
	DB	01H
	DB	0ffH
	DB	08cH
	DB	068H
	DB	01H
	DB	0ffH
	DB	088H
	DB	065H
	DB	01H
	DB	0ffH
	DB	07dH
	DB	05cH
	DB	01H
	DB	0ffH
	DB	06eH
	DB	052H
	DB	04H
	DB	0efH
	DB	00H
	DB	00H
	DB	00H
	DB	00H
	DB	00H
	DB	00H
	DB	00H
	DB	00H
	DB	00H
	DB	00H
	DB	00H
	DB	00H
	DB	00H
	DB	00H
	DB	00H
	DB	00H
	DB	00H
	DB	00H
	DB	00H
	DB	00H
	DB	00H
	DB	00H
	DB	00H
	DB	00H
	DB	00H
	DB	00H
	DB	00H
	DB	00H
	DB	00H
	DB	00H
	DB	00H
	DB	00H
	DB	00H
	DB	00H
	DB	00H
	DB	00H
	DB	00H
	DB	00H
	DB	00H
	DB	00H
	DB	06dH
	DB	050H
	DB	01H
	DB	0ffH
	DB	07fH
	DB	05eH
	DB	01H
	DB	0ffH
	DB	08aH
	DB	066H
	DB	01H
	DB	0ffH
	DB	08cH
	DB	068H
	DB	01H
	DB	0ffH
	DB	08dH
	DB	068H
	DB	01H
	DB	0ffH
	DB	08dH
	DB	068H
	DB	01H
	DB	0ffH
	DB	08dH
	DB	068H
	DB	01H
	DB	0ffH
	DB	08dH
	DB	068H
	DB	01H
	DB	0ffH
	DB	08dH
	DB	068H
	DB	01H
	DB	0ffH
	DB	08dH
	DB	068H
	DB	01H
	DB	0ffH
	DB	08dH
	DB	068H
	DB	01H
	DB	0ffH
	DB	08dH
	DB	068H
	DB	01H
	DB	0ffH
	DB	08dH
	DB	068H
	DB	01H
	DB	0ffH
	DB	08dH
	DB	068H
	DB	01H
	DB	0ffH
	DB	08dH
	DB	068H
	DB	01H
	DB	0ffH
	DB	08dH
	DB	068H
	DB	01H
	DB	0ffH
	DB	08dH
	DB	068H
	DB	01H
	DB	0ffH
	DB	08dH
	DB	068H
	DB	01H
	DB	0ffH
	DB	08dH
	DB	068H
	DB	01H
	DB	0ffH
	DB	08dH
	DB	068H
	DB	01H
	DB	0ffH
	DB	08dH
	DB	068H
	DB	01H
	DB	0ffH
	DB	08dH
	DB	068H
	DB	01H
	DB	0ffH
	DB	08dH
	DB	068H
	DB	01H
	DB	0ffH
	DB	08dH
	DB	068H
	DB	01H
	DB	0ffH
	DB	08dH
	DB	068H
	DB	01H
	DB	0ffH
	DB	08dH
	DB	068H
	DB	01H
	DB	0ffH
	DB	08dH
	DB	068H
	DB	01H
	DB	0ffH
	DB	08dH
	DB	068H
	DB	01H
	DB	0ffH
	DB	08dH
	DB	068H
	DB	01H
	DB	0ffH
	DB	08dH
	DB	068H
	DB	01H
	DB	0ffH
	DB	08dH
	DB	068H
	DB	01H
	DB	0ffH
	DB	08dH
	DB	068H
	DB	01H
	DB	0ffH
	DB	08dH
	DB	068H
	DB	01H
	DB	0ffH
	DB	08dH
	DB	068H
	DB	01H
	DB	0ffH
	DB	08dH
	DB	068H
	DB	01H
	DB	0ffH
	DB	08dH
	DB	068H
	DB	01H
	DB	0ffH
	DB	08dH
	DB	068H
	DB	01H
	DB	0ffH
	DB	08dH
	DB	068H
	DB	01H
	DB	0ffH
	DB	08dH
	DB	068H
	DB	01H
	DB	0ffH
	DB	08dH
	DB	068H
	DB	01H
	DB	0ffH
	DB	08dH
	DB	068H
	DB	01H
	DB	0ffH
	DB	08dH
	DB	068H
	DB	01H
	DB	0ffH
	DB	08dH
	DB	068H
	DB	01H
	DB	0ffH
	DB	08dH
	DB	068H
	DB	01H
	DB	0ffH
	DB	08dH
	DB	068H
	DB	01H
	DB	0ffH
	DB	08dH
	DB	068H
	DB	01H
	DB	0ffH
	DB	08cH
	DB	068H
	DB	01H
	DB	0ffH
	DB	089H
	DB	066H
	DB	01H
	DB	0ffH
	DB	07fH
	DB	05eH
	DB	01H
	DB	0ffH
	DB	06eH
	DB	051H
	DB	02H
	DB	0faH
	DB	00H
	DB	00H
	DB	00H
	DB	00H
	DB	00H
	DB	00H
	DB	00H
	DB	00H
	DB	00H
	DB	00H
	DB	00H
	DB	00H
	DB	00H
	DB	00H
	DB	00H
	DB	00H
	DB	00H
	DB	00H
	DB	00H
	DB	00H
	DB	00H
	DB	00H
	DB	00H
	DB	00H
	DB	00H
	DB	00H
	DB	00H
	DB	00H
	DB	00H
	DB	00H
	DB	00H
	DB	00H
	DB	00H
	DB	00H
	DB	00H
	DB	00H
	DB	00H
	DB	00H
	DB	00H
	DB	00H
	DB	06eH
	DB	052H
	DB	01H
	DB	0ffH
	DB	080H
	DB	05eH
	DB	01H
	DB	0ffH
	DB	08bH
	DB	067H
	DB	01H
	DB	0ffH
	DB	08dH
	DB	069H
	DB	01H
	DB	0ffH
	DB	08eH
	DB	069H
	DB	01H
	DB	0ffH
	DB	08eH
	DB	069H
	DB	01H
	DB	0ffH
	DB	08eH
	DB	069H
	DB	01H
	DB	0ffH
	DB	08eH
	DB	069H
	DB	01H
	DB	0ffH
	DB	08eH
	DB	069H
	DB	01H
	DB	0ffH
	DB	08eH
	DB	069H
	DB	01H
	DB	0ffH
	DB	08eH
	DB	069H
	DB	01H
	DB	0ffH
	DB	08eH
	DB	069H
	DB	01H
	DB	0ffH
	DB	08eH
	DB	069H
	DB	01H
	DB	0ffH
	DB	08eH
	DB	069H
	DB	01H
	DB	0ffH
	DB	08eH
	DB	069H
	DB	01H
	DB	0ffH
	DB	08eH
	DB	069H
	DB	01H
	DB	0ffH
	DB	08eH
	DB	069H
	DB	01H
	DB	0ffH
	DB	08eH
	DB	069H
	DB	01H
	DB	0ffH
	DB	08eH
	DB	069H
	DB	01H
	DB	0ffH
	DB	08eH
	DB	069H
	DB	01H
	DB	0ffH
	DB	08eH
	DB	069H
	DB	01H
	DB	0ffH
	DB	08eH
	DB	069H
	DB	01H
	DB	0ffH
	DB	08eH
	DB	069H
	DB	01H
	DB	0ffH
	DB	08eH
	DB	069H
	DB	01H
	DB	0ffH
	DB	08eH
	DB	069H
	DB	01H
	DB	0ffH
	DB	08eH
	DB	069H
	DB	01H
	DB	0ffH
	DB	08eH
	DB	069H
	DB	01H
	DB	0ffH
	DB	08eH
	DB	069H
	DB	01H
	DB	0ffH
	DB	08eH
	DB	069H
	DB	01H
	DB	0ffH
	DB	08eH
	DB	069H
	DB	01H
	DB	0ffH
	DB	08eH
	DB	069H
	DB	01H
	DB	0ffH
	DB	08eH
	DB	069H
	DB	01H
	DB	0ffH
	DB	08eH
	DB	069H
	DB	01H
	DB	0ffH
	DB	08eH
	DB	069H
	DB	01H
	DB	0ffH
	DB	08eH
	DB	069H
	DB	01H
	DB	0ffH
	DB	08eH
	DB	069H
	DB	01H
	DB	0ffH
	DB	08eH
	DB	069H
	DB	01H
	DB	0ffH
	DB	08eH
	DB	069H
	DB	01H
	DB	0ffH
	DB	08eH
	DB	069H
	DB	01H
	DB	0ffH
	DB	08eH
	DB	069H
	DB	01H
	DB	0ffH
	DB	08eH
	DB	069H
	DB	01H
	DB	0ffH
	DB	08eH
	DB	069H
	DB	01H
	DB	0ffH
	DB	08eH
	DB	069H
	DB	01H
	DB	0ffH
	DB	08eH
	DB	069H
	DB	01H
	DB	0ffH
	DB	08eH
	DB	069H
	DB	01H
	DB	0ffH
	DB	08eH
	DB	069H
	DB	01H
	DB	0ffH
	DB	08dH
	DB	069H
	DB	01H
	DB	0ffH
	DB	08aH
	DB	067H
	DB	01H
	DB	0ffH
	DB	080H
	DB	05eH
	DB	01H
	DB	0ffH
	DB	06fH
	DB	053H
	DB	02H
	DB	0faH
	DB	00H
	DB	00H
	DB	00H
	DB	00H
	DB	00H
	DB	00H
	DB	00H
	DB	00H
	DB	00H
	DB	00H
	DB	00H
	DB	00H
	DB	00H
	DB	00H
	DB	00H
	DB	00H
	DB	00H
	DB	00H
	DB	00H
	DB	00H
	DB	00H
	DB	00H
	DB	00H
	DB	00H
	DB	00H
	DB	00H
	DB	00H
	DB	00H
	DB	00H
	DB	00H
	DB	00H
	DB	00H
	DB	00H
	DB	00H
	DB	00H
	DB	00H
	DB	00H
	DB	00H
	DB	00H
	DB	00H
	DB	070H
	DB	053H
	DB	04H
	DB	0f4H
	DB	080H
	DB	05fH
	DB	01H
	DB	0ffH
	DB	08aH
	DB	067H
	DB	01H
	DB	0ffH
	DB	08eH
	DB	069H
	DB	01H
	DB	0ffH
	DB	08eH
	DB	069H
	DB	01H
	DB	0ffH
	DB	08eH
	DB	069H
	DB	01H
	DB	0ffH
	DB	08eH
	DB	069H
	DB	01H
	DB	0ffH
	DB	08eH
	DB	069H
	DB	01H
	DB	0ffH
	DB	08eH
	DB	069H
	DB	01H
	DB	0ffH
	DB	08eH
	DB	069H
	DB	01H
	DB	0ffH
	DB	08eH
	DB	069H
	DB	01H
	DB	0ffH
	DB	08eH
	DB	069H
	DB	01H
	DB	0ffH
	DB	08eH
	DB	069H
	DB	01H
	DB	0ffH
	DB	08eH
	DB	069H
	DB	01H
	DB	0ffH
	DB	08eH
	DB	069H
	DB	01H
	DB	0ffH
	DB	08eH
	DB	069H
	DB	01H
	DB	0ffH
	DB	08eH
	DB	069H
	DB	01H
	DB	0ffH
	DB	08eH
	DB	069H
	DB	01H
	DB	0ffH
	DB	08eH
	DB	069H
	DB	01H
	DB	0ffH
	DB	08eH
	DB	069H
	DB	01H
	DB	0ffH
	DB	08eH
	DB	069H
	DB	01H
	DB	0ffH
	DB	08eH
	DB	069H
	DB	01H
	DB	0ffH
	DB	08eH
	DB	069H
	DB	01H
	DB	0ffH
	DB	08eH
	DB	069H
	DB	01H
	DB	0ffH
	DB	08eH
	DB	069H
	DB	01H
	DB	0ffH
	DB	08eH
	DB	069H
	DB	01H
	DB	0ffH
	DB	08eH
	DB	069H
	DB	01H
	DB	0ffH
	DB	08eH
	DB	069H
	DB	01H
	DB	0ffH
	DB	08eH
	DB	069H
	DB	01H
	DB	0ffH
	DB	08eH
	DB	069H
	DB	01H
	DB	0ffH
	DB	08eH
	DB	069H
	DB	01H
	DB	0ffH
	DB	08eH
	DB	069H
	DB	01H
	DB	0ffH
	DB	08eH
	DB	069H
	DB	01H
	DB	0ffH
	DB	08eH
	DB	069H
	DB	01H
	DB	0ffH
	DB	08eH
	DB	069H
	DB	01H
	DB	0ffH
	DB	08eH
	DB	069H
	DB	01H
	DB	0ffH
	DB	08eH
	DB	069H
	DB	01H
	DB	0ffH
	DB	08eH
	DB	069H
	DB	01H
	DB	0ffH
	DB	08eH
	DB	069H
	DB	01H
	DB	0ffH
	DB	08eH
	DB	069H
	DB	01H
	DB	0ffH
	DB	08eH
	DB	069H
	DB	01H
	DB	0ffH
	DB	08eH
	DB	069H
	DB	01H
	DB	0ffH
	DB	08eH
	DB	069H
	DB	01H
	DB	0ffH
	DB	08eH
	DB	069H
	DB	01H
	DB	0ffH
	DB	08eH
	DB	069H
	DB	01H
	DB	0ffH
	DB	08eH
	DB	069H
	DB	01H
	DB	0ffH
	DB	08eH
	DB	069H
	DB	01H
	DB	0ffH
	DB	08aH
	DB	067H
	DB	01H
	DB	0ffH
	DB	080H
	DB	05fH
	DB	01H
	DB	0ffH
	DB	070H
	DB	053H
	DB	04H
	DB	0f0H
	DB	00H
	DB	00H
	DB	00H
	DB	00H
	DB	00H
	DB	00H
	DB	00H
	DB	00H
	DB	00H
	DB	00H
	DB	00H
	DB	00H
	DB	00H
	DB	00H
	DB	00H
	DB	00H
	DB	00H
	DB	00H
	DB	00H
	DB	00H
	DB	00H
	DB	00H
	DB	00H
	DB	00H
	DB	00H
	DB	00H
	DB	00H
	DB	00H
	DB	00H
	DB	00H
	DB	00H
	DB	00H
	DB	00H
	DB	00H
	DB	00H
	DB	00H
	DB	00H
	DB	00H
	DB	00H
	DB	00H
	DB	070H
	DB	054H
	DB	08H
	DB	0e2H
	DB	080H
	DB	05eH
	DB	01H
	DB	0ffH
	DB	08bH
	DB	066H
	DB	01H
	DB	0ffH
	DB	08fH
	DB	069H
	DB	01H
	DB	0ffH
	DB	08fH
	DB	069H
	DB	01H
	DB	0ffH
	DB	08fH
	DB	069H
	DB	01H
	DB	0ffH
	DB	08fH
	DB	069H
	DB	01H
	DB	0ffH
	DB	08fH
	DB	069H
	DB	01H
	DB	0ffH
	DB	08fH
	DB	069H
	DB	01H
	DB	0ffH
	DB	08fH
	DB	069H
	DB	01H
	DB	0ffH
	DB	08fH
	DB	069H
	DB	01H
	DB	0ffH
	DB	08fH
	DB	069H
	DB	01H
	DB	0ffH
	DB	08fH
	DB	069H
	DB	01H
	DB	0ffH
	DB	08fH
	DB	069H
	DB	01H
	DB	0ffH
	DB	08fH
	DB	069H
	DB	01H
	DB	0ffH
	DB	08fH
	DB	069H
	DB	01H
	DB	0ffH
	DB	08fH
	DB	069H
	DB	01H
	DB	0ffH
	DB	08fH
	DB	069H
	DB	01H
	DB	0ffH
	DB	08fH
	DB	069H
	DB	01H
	DB	0ffH
	DB	08fH
	DB	069H
	DB	01H
	DB	0ffH
	DB	08fH
	DB	069H
	DB	01H
	DB	0ffH
	DB	08fH
	DB	069H
	DB	01H
	DB	0ffH
	DB	08fH
	DB	069H
	DB	01H
	DB	0ffH
	DB	08fH
	DB	069H
	DB	01H
	DB	0ffH
	DB	08fH
	DB	069H
	DB	01H
	DB	0ffH
	DB	08fH
	DB	069H
	DB	01H
	DB	0ffH
	DB	08fH
	DB	069H
	DB	01H
	DB	0ffH
	DB	08fH
	DB	069H
	DB	01H
	DB	0ffH
	DB	08fH
	DB	069H
	DB	01H
	DB	0ffH
	DB	08fH
	DB	069H
	DB	01H
	DB	0ffH
	DB	08fH
	DB	069H
	DB	01H
	DB	0ffH
	DB	08fH
	DB	069H
	DB	01H
	DB	0ffH
	DB	08fH
	DB	069H
	DB	01H
	DB	0ffH
	DB	08fH
	DB	069H
	DB	01H
	DB	0ffH
	DB	08fH
	DB	069H
	DB	01H
	DB	0ffH
	DB	08fH
	DB	069H
	DB	01H
	DB	0ffH
	DB	08fH
	DB	069H
	DB	01H
	DB	0ffH
	DB	08fH
	DB	069H
	DB	01H
	DB	0ffH
	DB	08fH
	DB	069H
	DB	01H
	DB	0ffH
	DB	08fH
	DB	069H
	DB	01H
	DB	0ffH
	DB	08fH
	DB	069H
	DB	01H
	DB	0ffH
	DB	08fH
	DB	069H
	DB	01H
	DB	0ffH
	DB	08fH
	DB	069H
	DB	01H
	DB	0ffH
	DB	08fH
	DB	069H
	DB	01H
	DB	0ffH
	DB	08fH
	DB	069H
	DB	01H
	DB	0ffH
	DB	08fH
	DB	069H
	DB	01H
	DB	0ffH
	DB	08fH
	DB	069H
	DB	01H
	DB	0ffH
	DB	08bH
	DB	066H
	DB	01H
	DB	0ffH
	DB	080H
	DB	05eH
	DB	01H
	DB	0ffH
	DB	070H
	DB	054H
	DB	08H
	DB	0e2H
	DB	00H
	DB	00H
	DB	00H
	DB	00H
	DB	00H
	DB	00H
	DB	00H
	DB	00H
	DB	00H
	DB	00H
	DB	00H
	DB	00H
	DB	00H
	DB	00H
	DB	00H
	DB	00H
	DB	00H
	DB	00H
	DB	00H
	DB	00H
	DB	00H
	DB	00H
	DB	00H
	DB	00H
	DB	00H
	DB	00H
	DB	00H
	DB	00H
	DB	00H
	DB	00H
	DB	00H
	DB	00H
	DB	00H
	DB	00H
	DB	00H
	DB	00H
	DB	00H
	DB	00H
	DB	00H
	DB	00H
	DB	06fH
	DB	057H
	DB	0fH
	DB	0c4H
	DB	07eH
	DB	05dH
	DB	01H
	DB	0ffH
	DB	08aH
	DB	067H
	DB	01H
	DB	0ffH
	DB	08eH
	DB	06aH
	DB	01H
	DB	0ffH
	DB	08fH
	DB	06aH
	DB	01H
	DB	0ffH
	DB	08fH
	DB	06aH
	DB	01H
	DB	0ffH
	DB	08fH
	DB	06aH
	DB	01H
	DB	0ffH
	DB	08fH
	DB	06aH
	DB	01H
	DB	0ffH
	DB	08fH
	DB	06aH
	DB	01H
	DB	0ffH
	DB	08fH
	DB	06aH
	DB	01H
	DB	0ffH
	DB	08fH
	DB	06aH
	DB	01H
	DB	0ffH
	DB	08fH
	DB	06aH
	DB	01H
	DB	0ffH
	DB	08fH
	DB	06aH
	DB	01H
	DB	0ffH
	DB	08fH
	DB	06aH
	DB	01H
	DB	0ffH
	DB	08fH
	DB	06aH
	DB	01H
	DB	0ffH
	DB	08fH
	DB	06aH
	DB	01H
	DB	0ffH
	DB	08fH
	DB	06aH
	DB	01H
	DB	0ffH
	DB	08fH
	DB	06aH
	DB	01H
	DB	0ffH
	DB	08fH
	DB	06aH
	DB	01H
	DB	0ffH
	DB	08fH
	DB	06aH
	DB	01H
	DB	0ffH
	DB	08fH
	DB	06aH
	DB	01H
	DB	0ffH
	DB	08fH
	DB	06aH
	DB	01H
	DB	0ffH
	DB	08fH
	DB	06aH
	DB	01H
	DB	0ffH
	DB	08fH
	DB	06aH
	DB	01H
	DB	0ffH
	DB	08fH
	DB	06aH
	DB	01H
	DB	0ffH
	DB	08fH
	DB	06aH
	DB	01H
	DB	0ffH
	DB	08fH
	DB	06aH
	DB	01H
	DB	0ffH
	DB	08fH
	DB	06aH
	DB	01H
	DB	0ffH
	DB	08fH
	DB	06aH
	DB	01H
	DB	0ffH
	DB	08fH
	DB	06aH
	DB	01H
	DB	0ffH
	DB	08fH
	DB	06aH
	DB	01H
	DB	0ffH
	DB	08fH
	DB	06aH
	DB	01H
	DB	0ffH
	DB	08fH
	DB	06aH
	DB	01H
	DB	0ffH
	DB	08fH
	DB	06aH
	DB	01H
	DB	0ffH
	DB	08fH
	DB	06aH
	DB	01H
	DB	0ffH
	DB	08fH
	DB	06aH
	DB	01H
	DB	0ffH
	DB	08fH
	DB	06aH
	DB	01H
	DB	0ffH
	DB	08fH
	DB	06aH
	DB	01H
	DB	0ffH
	DB	08fH
	DB	06aH
	DB	01H
	DB	0ffH
	DB	08fH
	DB	06aH
	DB	01H
	DB	0ffH
	DB	08fH
	DB	06aH
	DB	01H
	DB	0ffH
	DB	08fH
	DB	06aH
	DB	01H
	DB	0ffH
	DB	08fH
	DB	06aH
	DB	01H
	DB	0ffH
	DB	08fH
	DB	06aH
	DB	01H
	DB	0ffH
	DB	08fH
	DB	06aH
	DB	01H
	DB	0ffH
	DB	08fH
	DB	06aH
	DB	01H
	DB	0ffH
	DB	08eH
	DB	06aH
	DB	01H
	DB	0ffH
	DB	08aH
	DB	067H
	DB	01H
	DB	0ffH
	DB	07eH
	DB	05dH
	DB	01H
	DB	0ffH
	DB	06fH
	DB	056H
	DB	0fH
	DB	0c5H
	DB	00H
	DB	00H
	DB	00H
	DB	00H
	DB	00H
	DB	00H
	DB	00H
	DB	00H
	DB	00H
	DB	00H
	DB	00H
	DB	00H
	DB	00H
	DB	00H
	DB	00H
	DB	00H
	DB	00H
	DB	00H
	DB	00H
	DB	00H
	DB	00H
	DB	00H
	DB	00H
	DB	00H
	DB	00H
	DB	00H
	DB	00H
	DB	00H
	DB	00H
	DB	00H
	DB	00H
	DB	00H
	DB	00H
	DB	00H
	DB	00H
	DB	00H
	DB	00H
	DB	00H
	DB	00H
	DB	00H
	DB	070H
	DB	058H
	DB	017H
	DB	0a1H
	DB	07dH
	DB	05cH
	DB	01H
	DB	0ffH
	DB	08aH
	DB	066H
	DB	01H
	DB	0ffH
	DB	08fH
	DB	06aH
	DB	01H
	DB	0ffH
	DB	090H
	DB	06aH
	DB	01H
	DB	0ffH
	DB	090H
	DB	06aH
	DB	01H
	DB	0ffH
	DB	090H
	DB	06aH
	DB	01H
	DB	0ffH
	DB	090H
	DB	06aH
	DB	01H
	DB	0ffH
	DB	090H
	DB	06aH
	DB	01H
	DB	0ffH
	DB	090H
	DB	06aH
	DB	01H
	DB	0ffH
	DB	090H
	DB	06aH
	DB	01H
	DB	0ffH
	DB	090H
	DB	06aH
	DB	01H
	DB	0ffH
	DB	090H
	DB	06aH
	DB	01H
	DB	0ffH
	DB	090H
	DB	06aH
	DB	01H
	DB	0ffH
	DB	090H
	DB	06aH
	DB	01H
	DB	0ffH
	DB	090H
	DB	06aH
	DB	01H
	DB	0ffH
	DB	090H
	DB	06aH
	DB	01H
	DB	0ffH
	DB	090H
	DB	06aH
	DB	01H
	DB	0ffH
	DB	090H
	DB	06aH
	DB	01H
	DB	0ffH
	DB	090H
	DB	06aH
	DB	01H
	DB	0ffH
	DB	090H
	DB	06aH
	DB	01H
	DB	0ffH
	DB	090H
	DB	06aH
	DB	01H
	DB	0ffH
	DB	090H
	DB	06aH
	DB	01H
	DB	0ffH
	DB	090H
	DB	06aH
	DB	01H
	DB	0ffH
	DB	090H
	DB	06aH
	DB	01H
	DB	0ffH
	DB	090H
	DB	06aH
	DB	01H
	DB	0ffH
	DB	090H
	DB	06aH
	DB	01H
	DB	0ffH
	DB	090H
	DB	06aH
	DB	01H
	DB	0ffH
	DB	090H
	DB	06aH
	DB	01H
	DB	0ffH
	DB	090H
	DB	06aH
	DB	01H
	DB	0ffH
	DB	090H
	DB	06aH
	DB	01H
	DB	0ffH
	DB	090H
	DB	06aH
	DB	01H
	DB	0ffH
	DB	090H
	DB	06aH
	DB	01H
	DB	0ffH
	DB	090H
	DB	06aH
	DB	01H
	DB	0ffH
	DB	090H
	DB	06aH
	DB	01H
	DB	0ffH
	DB	090H
	DB	06aH
	DB	01H
	DB	0ffH
	DB	090H
	DB	06aH
	DB	01H
	DB	0ffH
	DB	090H
	DB	06aH
	DB	01H
	DB	0ffH
	DB	090H
	DB	06aH
	DB	01H
	DB	0ffH
	DB	090H
	DB	06aH
	DB	01H
	DB	0ffH
	DB	090H
	DB	06aH
	DB	01H
	DB	0ffH
	DB	090H
	DB	06aH
	DB	01H
	DB	0ffH
	DB	090H
	DB	06aH
	DB	01H
	DB	0ffH
	DB	090H
	DB	06aH
	DB	01H
	DB	0ffH
	DB	090H
	DB	06aH
	DB	01H
	DB	0ffH
	DB	090H
	DB	06aH
	DB	01H
	DB	0ffH
	DB	08fH
	DB	06aH
	DB	01H
	DB	0ffH
	DB	08aH
	DB	066H
	DB	01H
	DB	0ffH
	DB	07dH
	DB	05cH
	DB	01H
	DB	0ffH
	DB	070H
	DB	058H
	DB	017H
	DB	0a1H
	DB	00H
	DB	00H
	DB	00H
	DB	00H
	DB	00H
	DB	00H
	DB	00H
	DB	00H
	DB	00H
	DB	00H
	DB	00H
	DB	00H
	DB	00H
	DB	00H
	DB	00H
	DB	00H
	DB	00H
	DB	00H
	DB	00H
	DB	00H
	DB	00H
	DB	00H
	DB	00H
	DB	00H
	DB	00H
	DB	00H
	DB	00H
	DB	00H
	DB	00H
	DB	00H
	DB	00H
	DB	00H
	DB	00H
	DB	00H
	DB	00H
	DB	00H
	DB	00H
	DB	00H
	DB	00H
	DB	00H
	DB	077H
	DB	062H
	DB	028H
	DB	070H
	DB	079H
	DB	059H
	DB	01H
	DB	0ffH
	DB	088H
	DB	064H
	DB	01H
	DB	0ffH
	DB	08fH
	DB	06aH
	DB	01H
	DB	0ffH
	DB	090H
	DB	06aH
	DB	01H
	DB	0ffH
	DB	090H
	DB	06aH
	DB	01H
	DB	0ffH
	DB	090H
	DB	06aH
	DB	01H
	DB	0ffH
	DB	090H
	DB	06aH
	DB	01H
	DB	0ffH
	DB	090H
	DB	06aH
	DB	01H
	DB	0ffH
	DB	090H
	DB	06aH
	DB	01H
	DB	0ffH
	DB	090H
	DB	06aH
	DB	01H
	DB	0ffH
	DB	090H
	DB	06aH
	DB	01H
	DB	0ffH
	DB	090H
	DB	06aH
	DB	01H
	DB	0ffH
	DB	090H
	DB	06aH
	DB	01H
	DB	0ffH
	DB	090H
	DB	06aH
	DB	01H
	DB	0ffH
	DB	090H
	DB	06aH
	DB	01H
	DB	0ffH
	DB	090H
	DB	06aH
	DB	01H
	DB	0ffH
	DB	090H
	DB	06aH
	DB	01H
	DB	0ffH
	DB	090H
	DB	06aH
	DB	01H
	DB	0ffH
	DB	090H
	DB	06aH
	DB	01H
	DB	0ffH
	DB	090H
	DB	06aH
	DB	01H
	DB	0ffH
	DB	090H
	DB	06aH
	DB	01H
	DB	0ffH
	DB	090H
	DB	06aH
	DB	01H
	DB	0ffH
	DB	090H
	DB	06aH
	DB	01H
	DB	0ffH
	DB	090H
	DB	06aH
	DB	01H
	DB	0ffH
	DB	090H
	DB	06aH
	DB	01H
	DB	0ffH
	DB	090H
	DB	06aH
	DB	01H
	DB	0ffH
	DB	090H
	DB	06aH
	DB	01H
	DB	0ffH
	DB	090H
	DB	06aH
	DB	01H
	DB	0ffH
	DB	090H
	DB	06aH
	DB	01H
	DB	0ffH
	DB	090H
	DB	06aH
	DB	01H
	DB	0ffH
	DB	090H
	DB	06aH
	DB	01H
	DB	0ffH
	DB	090H
	DB	06aH
	DB	01H
	DB	0ffH
	DB	090H
	DB	06aH
	DB	01H
	DB	0ffH
	DB	090H
	DB	06aH
	DB	01H
	DB	0ffH
	DB	090H
	DB	06aH
	DB	01H
	DB	0ffH
	DB	090H
	DB	06aH
	DB	01H
	DB	0ffH
	DB	090H
	DB	06aH
	DB	01H
	DB	0ffH
	DB	090H
	DB	06aH
	DB	01H
	DB	0ffH
	DB	090H
	DB	06aH
	DB	01H
	DB	0ffH
	DB	090H
	DB	06aH
	DB	01H
	DB	0ffH
	DB	090H
	DB	06aH
	DB	01H
	DB	0ffH
	DB	090H
	DB	06aH
	DB	01H
	DB	0ffH
	DB	090H
	DB	06aH
	DB	01H
	DB	0ffH
	DB	090H
	DB	06aH
	DB	01H
	DB	0ffH
	DB	090H
	DB	06aH
	DB	01H
	DB	0ffH
	DB	08fH
	DB	06aH
	DB	01H
	DB	0ffH
	DB	088H
	DB	064H
	DB	01H
	DB	0ffH
	DB	079H
	DB	059H
	DB	01H
	DB	0ffH
	DB	076H
	DB	062H
	DB	026H
	DB	074H
	DB	00H
	DB	00H
	DB	00H
	DB	00H
	DB	00H
	DB	00H
	DB	00H
	DB	00H
	DB	00H
	DB	00H
	DB	00H
	DB	00H
	DB	00H
	DB	00H
	DB	00H
	DB	00H
	DB	00H
	DB	00H
	DB	00H
	DB	00H
	DB	00H
	DB	00H
	DB	00H
	DB	00H
	DB	00H
	DB	00H
	DB	00H
	DB	00H
	DB	00H
	DB	00H
	DB	00H
	DB	00H
	DB	00H
	DB	00H
	DB	00H
	DB	00H
	DB	00H
	DB	00H
	DB	00H
	DB	00H
	DB	096H
	DB	085H
	DB	057H
	DB	02cH
	DB	075H
	DB	057H
	DB	00H
	DB	0ffH
	DB	086H
	DB	063H
	DB	00H
	DB	0ffH
	DB	08fH
	DB	06aH
	DB	00H
	DB	0ffH
	DB	091H
	DB	06bH
	DB	00H
	DB	0ffH
	DB	091H
	DB	06bH
	DB	00H
	DB	0ffH
	DB	091H
	DB	06bH
	DB	00H
	DB	0ffH
	DB	091H
	DB	06bH
	DB	00H
	DB	0ffH
	DB	091H
	DB	06bH
	DB	00H
	DB	0ffH
	DB	091H
	DB	06bH
	DB	00H
	DB	0ffH
	DB	091H
	DB	06bH
	DB	00H
	DB	0ffH
	DB	091H
	DB	06bH
	DB	00H
	DB	0ffH
	DB	091H
	DB	06bH
	DB	00H
	DB	0ffH
	DB	091H
	DB	06bH
	DB	00H
	DB	0ffH
	DB	091H
	DB	06bH
	DB	00H
	DB	0ffH
	DB	091H
	DB	06bH
	DB	00H
	DB	0ffH
	DB	091H
	DB	06bH
	DB	00H
	DB	0ffH
	DB	091H
	DB	06bH
	DB	00H
	DB	0ffH
	DB	091H
	DB	06bH
	DB	00H
	DB	0ffH
	DB	091H
	DB	06bH
	DB	00H
	DB	0ffH
	DB	091H
	DB	06bH
	DB	00H
	DB	0ffH
	DB	091H
	DB	06bH
	DB	00H
	DB	0ffH
	DB	091H
	DB	06bH
	DB	00H
	DB	0ffH
	DB	091H
	DB	06bH
	DB	00H
	DB	0ffH
	DB	091H
	DB	06bH
	DB	00H
	DB	0ffH
	DB	091H
	DB	06bH
	DB	00H
	DB	0ffH
	DB	091H
	DB	06bH
	DB	00H
	DB	0ffH
	DB	091H
	DB	06bH
	DB	00H
	DB	0ffH
	DB	091H
	DB	06bH
	DB	00H
	DB	0ffH
	DB	091H
	DB	06bH
	DB	00H
	DB	0ffH
	DB	091H
	DB	06bH
	DB	00H
	DB	0ffH
	DB	091H
	DB	06bH
	DB	00H
	DB	0ffH
	DB	091H
	DB	06bH
	DB	00H
	DB	0ffH
	DB	091H
	DB	06bH
	DB	00H
	DB	0ffH
	DB	091H
	DB	06bH
	DB	00H
	DB	0ffH
	DB	091H
	DB	06bH
	DB	00H
	DB	0ffH
	DB	091H
	DB	06bH
	DB	00H
	DB	0ffH
	DB	091H
	DB	06bH
	DB	00H
	DB	0ffH
	DB	091H
	DB	06bH
	DB	00H
	DB	0ffH
	DB	091H
	DB	06bH
	DB	00H
	DB	0ffH
	DB	091H
	DB	06bH
	DB	00H
	DB	0ffH
	DB	091H
	DB	06bH
	DB	00H
	DB	0ffH
	DB	091H
	DB	06bH
	DB	00H
	DB	0ffH
	DB	091H
	DB	06bH
	DB	00H
	DB	0ffH
	DB	091H
	DB	06bH
	DB	00H
	DB	0ffH
	DB	091H
	DB	06bH
	DB	00H
	DB	0ffH
	DB	08fH
	DB	06aH
	DB	00H
	DB	0ffH
	DB	086H
	DB	063H
	DB	00H
	DB	0ffH
	DB	076H
	DB	058H
	DB	00H
	DB	0ffH
	DB	092H
	DB	081H
	DB	052H
	DB	032H
	DB	00H
	DB	00H
	DB	00H
	DB	00H
	DB	00H
	DB	00H
	DB	00H
	DB	00H
	DB	00H
	DB	00H
	DB	00H
	DB	00H
	DB	00H
	DB	00H
	DB	00H
	DB	00H
	DB	00H
	DB	00H
	DB	00H
	DB	00H
	DB	00H
	DB	00H
	DB	00H
	DB	00H
	DB	00H
	DB	00H
	DB	00H
	DB	00H
	DB	00H
	DB	00H
	DB	00H
	DB	00H
	DB	00H
	DB	00H
	DB	00H
	DB	00H
	DB	00H
	DB	00H
	DB	00H
	DB	00H
	DB	0ffH
	DB	0ffH
	DB	0ffH
	DB	05H
	DB	06fH
	DB	054H
	DB	08H
	DB	0ddH
	DB	082H
	DB	061H
	DB	00H
	DB	0ffH
	DB	08dH
	DB	069H
	DB	00H
	DB	0ffH
	DB	091H
	DB	06bH
	DB	00H
	DB	0ffH
	DB	091H
	DB	06bH
	DB	00H
	DB	0ffH
	DB	091H
	DB	06bH
	DB	00H
	DB	0ffH
	DB	091H
	DB	06bH
	DB	00H
	DB	0ffH
	DB	091H
	DB	06bH
	DB	00H
	DB	0ffH
	DB	091H
	DB	06bH
	DB	00H
	DB	0ffH
	DB	091H
	DB	06bH
	DB	00H
	DB	0ffH
	DB	091H
	DB	06bH
	DB	00H
	DB	0ffH
	DB	091H
	DB	06bH
	DB	00H
	DB	0ffH
	DB	091H
	DB	06bH
	DB	00H
	DB	0ffH
	DB	091H
	DB	06bH
	DB	00H
	DB	0ffH
	DB	091H
	DB	06bH
	DB	00H
	DB	0ffH
	DB	091H
	DB	06bH
	DB	00H
	DB	0ffH
	DB	091H
	DB	06bH
	DB	00H
	DB	0ffH
	DB	091H
	DB	06bH
	DB	00H
	DB	0ffH
	DB	091H
	DB	06bH
	DB	00H
	DB	0ffH
	DB	091H
	DB	06bH
	DB	00H
	DB	0ffH
	DB	091H
	DB	06bH
	DB	00H
	DB	0ffH
	DB	091H
	DB	06bH
	DB	00H
	DB	0ffH
	DB	091H
	DB	06bH
	DB	00H
	DB	0ffH
	DB	091H
	DB	06bH
	DB	00H
	DB	0ffH
	DB	091H
	DB	06bH
	DB	00H
	DB	0ffH
	DB	091H
	DB	06bH
	DB	00H
	DB	0ffH
	DB	091H
	DB	06bH
	DB	00H
	DB	0ffH
	DB	091H
	DB	06bH
	DB	00H
	DB	0ffH
	DB	091H
	DB	06bH
	DB	00H
	DB	0ffH
	DB	091H
	DB	06bH
	DB	00H
	DB	0ffH
	DB	091H
	DB	06bH
	DB	00H
	DB	0ffH
	DB	091H
	DB	06bH
	DB	00H
	DB	0ffH
	DB	091H
	DB	06bH
	DB	00H
	DB	0ffH
	DB	091H
	DB	06bH
	DB	00H
	DB	0ffH
	DB	091H
	DB	06bH
	DB	00H
	DB	0ffH
	DB	091H
	DB	06bH
	DB	00H
	DB	0ffH
	DB	091H
	DB	06bH
	DB	00H
	DB	0ffH
	DB	091H
	DB	06bH
	DB	00H
	DB	0ffH
	DB	091H
	DB	06bH
	DB	00H
	DB	0ffH
	DB	091H
	DB	06bH
	DB	00H
	DB	0ffH
	DB	091H
	DB	06bH
	DB	00H
	DB	0ffH
	DB	091H
	DB	06bH
	DB	00H
	DB	0ffH
	DB	091H
	DB	06bH
	DB	00H
	DB	0ffH
	DB	091H
	DB	06bH
	DB	00H
	DB	0ffH
	DB	091H
	DB	06bH
	DB	00H
	DB	0ffH
	DB	08dH
	DB	069H
	DB	00H
	DB	0ffH
	DB	082H
	DB	061H
	DB	00H
	DB	0ffH
	DB	070H
	DB	055H
	DB	08H
	DB	0e1H
	DB	0ffH
	DB	0ffH
	DB	0ffH
	DB	06H
	DB	00H
	DB	00H
	DB	00H
	DB	00H
	DB	00H
	DB	00H
	DB	00H
	DB	00H
	DB	00H
	DB	00H
	DB	00H
	DB	00H
	DB	00H
	DB	00H
	DB	00H
	DB	00H
	DB	00H
	DB	00H
	DB	00H
	DB	00H
	DB	00H
	DB	00H
	DB	00H
	DB	00H
	DB	00H
	DB	00H
	DB	00H
	DB	00H
	DB	00H
	DB	00H
	DB	00H
	DB	00H
	DB	00H
	DB	00H
	DB	00H
	DB	00H
	DB	00H
	DB	00H
	DB	00H
	DB	00H
	DB	00H
	DB	00H
	DB	00H
	DB	00H
	DB	07aH
	DB	063H
	DB	024H
	DB	08fH
	DB	07eH
	DB	05dH
	DB	00H
	DB	0ffH
	DB	08cH
	DB	066H
	DB	00H
	DB	0ffH
	DB	091H
	DB	06bH
	DB	00H
	DB	0ffH
	DB	092H
	DB	06bH
	DB	00H
	DB	0ffH
	DB	092H
	DB	06bH
	DB	00H
	DB	0ffH
	DB	092H
	DB	06bH
	DB	00H
	DB	0ffH
	DB	092H
	DB	06bH
	DB	00H
	DB	0ffH
	DB	092H
	DB	06bH
	DB	00H
	DB	0ffH
	DB	092H
	DB	06bH
	DB	00H
	DB	0ffH
	DB	092H
	DB	06bH
	DB	00H
	DB	0ffH
	DB	092H
	DB	06bH
	DB	00H
	DB	0ffH
	DB	092H
	DB	06bH
	DB	00H
	DB	0ffH
	DB	092H
	DB	06bH
	DB	00H
	DB	0ffH
	DB	092H
	DB	06bH
	DB	00H
	DB	0ffH
	DB	092H
	DB	06bH
	DB	00H
	DB	0ffH
	DB	092H
	DB	06bH
	DB	00H
	DB	0ffH
	DB	092H
	DB	06bH
	DB	00H
	DB	0ffH
	DB	092H
	DB	06bH
	DB	00H
	DB	0ffH
	DB	092H
	DB	06bH
	DB	00H
	DB	0ffH
	DB	092H
	DB	06bH
	DB	00H
	DB	0ffH
	DB	092H
	DB	06bH
	DB	00H
	DB	0ffH
	DB	092H
	DB	06bH
	DB	00H
	DB	0ffH
	DB	092H
	DB	06bH
	DB	00H
	DB	0ffH
	DB	092H
	DB	06bH
	DB	00H
	DB	0ffH
	DB	092H
	DB	06bH
	DB	00H
	DB	0ffH
	DB	092H
	DB	06bH
	DB	00H
	DB	0ffH
	DB	092H
	DB	06bH
	DB	00H
	DB	0ffH
	DB	092H
	DB	06bH
	DB	00H
	DB	0ffH
	DB	092H
	DB	06bH
	DB	00H
	DB	0ffH
	DB	092H
	DB	06bH
	DB	00H
	DB	0ffH
	DB	092H
	DB	06bH
	DB	00H
	DB	0ffH
	DB	092H
	DB	06bH
	DB	00H
	DB	0ffH
	DB	092H
	DB	06bH
	DB	00H
	DB	0ffH
	DB	092H
	DB	06bH
	DB	00H
	DB	0ffH
	DB	092H
	DB	06bH
	DB	00H
	DB	0ffH
	DB	092H
	DB	06bH
	DB	00H
	DB	0ffH
	DB	092H
	DB	06bH
	DB	00H
	DB	0ffH
	DB	092H
	DB	06bH
	DB	00H
	DB	0ffH
	DB	092H
	DB	06bH
	DB	00H
	DB	0ffH
	DB	092H
	DB	06bH
	DB	00H
	DB	0ffH
	DB	092H
	DB	06bH
	DB	00H
	DB	0ffH
	DB	092H
	DB	06bH
	DB	00H
	DB	0ffH
	DB	092H
	DB	06bH
	DB	00H
	DB	0ffH
	DB	091H
	DB	06bH
	DB	00H
	DB	0ffH
	DB	08cH
	DB	066H
	DB	00H
	DB	0ffH
	DB	07fH
	DB	05dH
	DB	00H
	DB	0ffH
	DB	077H
	DB	060H
	DB	020H
	DB	096H
	DB	00H
	DB	00H
	DB	00H
	DB	00H
	DB	00H
	DB	00H
	DB	00H
	DB	00H
	DB	00H
	DB	00H
	DB	00H
	DB	00H
	DB	00H
	DB	00H
	DB	00H
	DB	00H
	DB	00H
	DB	00H
	DB	00H
	DB	00H
	DB	00H
	DB	00H
	DB	00H
	DB	00H
	DB	00H
	DB	00H
	DB	00H
	DB	00H
	DB	00H
	DB	00H
	DB	00H
	DB	00H
	DB	00H
	DB	00H
	DB	00H
	DB	00H
	DB	00H
	DB	00H
	DB	00H
	DB	00H
	DB	00H
	DB	00H
	DB	00H
	DB	00H
	DB	00H
	DB	00H
	DB	00H
	DB	00H
	DB	09cH
	DB	08cH
	DB	05fH
	DB	033H
	DB	076H
	DB	057H
	DB	00H
	DB	0fdH
	DB	088H
	DB	064H
	DB	00H
	DB	0ffH
	DB	090H
	DB	06aH
	DB	00H
	DB	0ffH
	DB	092H
	DB	06cH
	DB	00H
	DB	0ffH
	DB	092H
	DB	06cH
	DB	00H
	DB	0ffH
	DB	092H
	DB	06cH
	DB	00H
	DB	0ffH
	DB	092H
	DB	06cH
	DB	00H
	DB	0ffH
	DB	092H
	DB	06cH
	DB	00H
	DB	0ffH
	DB	092H
	DB	06cH
	DB	00H
	DB	0ffH
	DB	092H
	DB	06cH
	DB	00H
	DB	0ffH
	DB	092H
	DB	06cH
	DB	00H
	DB	0ffH
	DB	092H
	DB	06cH
	DB	00H
	DB	0ffH
	DB	092H
	DB	06cH
	DB	00H
	DB	0ffH
	DB	092H
	DB	06cH
	DB	00H
	DB	0ffH
	DB	092H
	DB	06cH
	DB	00H
	DB	0ffH
	DB	092H
	DB	06cH
	DB	00H
	DB	0ffH
	DB	092H
	DB	06cH
	DB	00H
	DB	0ffH
	DB	092H
	DB	06cH
	DB	00H
	DB	0ffH
	DB	092H
	DB	06cH
	DB	00H
	DB	0ffH
	DB	092H
	DB	06cH
	DB	00H
	DB	0ffH
	DB	092H
	DB	06cH
	DB	00H
	DB	0ffH
	DB	092H
	DB	06cH
	DB	00H
	DB	0ffH
	DB	092H
	DB	06cH
	DB	00H
	DB	0ffH
	DB	092H
	DB	06cH
	DB	00H
	DB	0ffH
	DB	092H
	DB	06cH
	DB	00H
	DB	0ffH
	DB	092H
	DB	06cH
	DB	00H
	DB	0ffH
	DB	092H
	DB	06cH
	DB	00H
	DB	0ffH
	DB	092H
	DB	06cH
	DB	00H
	DB	0ffH
	DB	092H
	DB	06cH
	DB	00H
	DB	0ffH
	DB	092H
	DB	06cH
	DB	00H
	DB	0ffH
	DB	092H
	DB	06cH
	DB	00H
	DB	0ffH
	DB	092H
	DB	06cH
	DB	00H
	DB	0ffH
	DB	092H
	DB	06cH
	DB	00H
	DB	0ffH
	DB	092H
	DB	06cH
	DB	00H
	DB	0ffH
	DB	092H
	DB	06cH
	DB	00H
	DB	0ffH
	DB	092H
	DB	06cH
	DB	00H
	DB	0ffH
	DB	092H
	DB	06cH
	DB	00H
	DB	0ffH
	DB	092H
	DB	06cH
	DB	00H
	DB	0ffH
	DB	092H
	DB	06cH
	DB	00H
	DB	0ffH
	DB	092H
	DB	06cH
	DB	00H
	DB	0ffH
	DB	092H
	DB	06cH
	DB	00H
	DB	0ffH
	DB	092H
	DB	06cH
	DB	00H
	DB	0ffH
	DB	092H
	DB	06cH
	DB	00H
	DB	0ffH
	DB	090H
	DB	06bH
	DB	00H
	DB	0ffH
	DB	088H
	DB	064H
	DB	00H
	DB	0ffH
	DB	076H
	DB	057H
	DB	00H
	DB	0fdH
	DB	09fH
	DB	08fH
	DB	063H
	DB	036H
	DB	00H
	DB	00H
	DB	00H
	DB	00H
	DB	00H
	DB	00H
	DB	00H
	DB	00H
	DB	00H
	DB	00H
	DB	00H
	DB	00H
	DB	00H
	DB	00H
	DB	00H
	DB	00H
	DB	00H
	DB	00H
	DB	00H
	DB	00H
	DB	00H
	DB	00H
	DB	00H
	DB	00H
	DB	00H
	DB	00H
	DB	00H
	DB	00H
	DB	00H
	DB	00H
	DB	00H
	DB	00H
	DB	00H
	DB	00H
	DB	00H
	DB	00H
	DB	00H
	DB	00H
	DB	00H
	DB	00H
	DB	00H
	DB	00H
	DB	00H
	DB	00H
	DB	00H
	DB	00H
	DB	00H
	DB	00H
	DB	0ffH
	DB	0ffH
	DB	0ffH
	DB	06H
	DB	074H
	DB	059H
	DB	013H
	DB	0beH
	DB	083H
	DB	060H
	DB	00H
	DB	0ffH
	DB	08eH
	DB	069H
	DB	00H
	DB	0ffH
	DB	093H
	DB	06cH
	DB	00H
	DB	0ffH
	DB	093H
	DB	06cH
	DB	00H
	DB	0ffH
	DB	093H
	DB	06cH
	DB	00H
	DB	0ffH
	DB	093H
	DB	06cH
	DB	00H
	DB	0ffH
	DB	093H
	DB	06cH
	DB	00H
	DB	0ffH
	DB	093H
	DB	06cH
	DB	00H
	DB	0ffH
	DB	093H
	DB	06cH
	DB	00H
	DB	0ffH
	DB	093H
	DB	06cH
	DB	00H
	DB	0ffH
	DB	093H
	DB	06cH
	DB	00H
	DB	0ffH
	DB	093H
	DB	06cH
	DB	00H
	DB	0ffH
	DB	093H
	DB	06cH
	DB	00H
	DB	0ffH
	DB	093H
	DB	06cH
	DB	00H
	DB	0ffH
	DB	093H
	DB	06cH
	DB	00H
	DB	0ffH
	DB	093H
	DB	06cH
	DB	00H
	DB	0ffH
	DB	093H
	DB	06cH
	DB	00H
	DB	0ffH
	DB	093H
	DB	06cH
	DB	00H
	DB	0ffH
	DB	093H
	DB	06cH
	DB	00H
	DB	0ffH
	DB	093H
	DB	06cH
	DB	00H
	DB	0ffH
	DB	093H
	DB	06cH
	DB	00H
	DB	0ffH
	DB	093H
	DB	06cH
	DB	00H
	DB	0ffH
	DB	093H
	DB	06cH
	DB	00H
	DB	0ffH
	DB	093H
	DB	06cH
	DB	00H
	DB	0ffH
	DB	093H
	DB	06cH
	DB	00H
	DB	0ffH
	DB	093H
	DB	06cH
	DB	00H
	DB	0ffH
	DB	093H
	DB	06cH
	DB	00H
	DB	0ffH
	DB	093H
	DB	06cH
	DB	00H
	DB	0ffH
	DB	093H
	DB	06cH
	DB	00H
	DB	0ffH
	DB	093H
	DB	06cH
	DB	00H
	DB	0ffH
	DB	093H
	DB	06cH
	DB	00H
	DB	0ffH
	DB	093H
	DB	06cH
	DB	00H
	DB	0ffH
	DB	093H
	DB	06cH
	DB	00H
	DB	0ffH
	DB	093H
	DB	06cH
	DB	00H
	DB	0ffH
	DB	093H
	DB	06cH
	DB	00H
	DB	0ffH
	DB	093H
	DB	06cH
	DB	00H
	DB	0ffH
	DB	093H
	DB	06cH
	DB	00H
	DB	0ffH
	DB	093H
	DB	06cH
	DB	00H
	DB	0ffH
	DB	093H
	DB	06cH
	DB	00H
	DB	0ffH
	DB	093H
	DB	06cH
	DB	00H
	DB	0ffH
	DB	093H
	DB	06cH
	DB	00H
	DB	0ffH
	DB	093H
	DB	06cH
	DB	00H
	DB	0ffH
	DB	08eH
	DB	069H
	DB	00H
	DB	0ffH
	DB	083H
	DB	060H
	DB	00H
	DB	0ffH
	DB	074H
	DB	059H
	DB	013H
	DB	0beH
	DB	0ffH
	DB	0ffH
	DB	0ffH
	DB	06H
	DB	00H
	DB	00H
	DB	00H
	DB	00H
	DB	00H
	DB	00H
	DB	00H
	DB	00H
	DB	00H
	DB	00H
	DB	00H
	DB	00H
	DB	00H
	DB	00H
	DB	00H
	DB	00H
	DB	00H
	DB	00H
	DB	00H
	DB	00H
	DB	00H
	DB	00H
	DB	00H
	DB	00H
	DB	00H
	DB	00H
	DB	00H
	DB	00H
	DB	00H
	DB	00H
	DB	00H
	DB	00H
	DB	00H
	DB	00H
	DB	00H
	DB	00H
	DB	00H
	DB	00H
	DB	00H
	DB	00H
	DB	00H
	DB	00H
	DB	00H
	DB	00H
	DB	00H
	DB	00H
	DB	00H
	DB	00H
	DB	00H
	DB	00H
	DB	00H
	DB	00H
	DB	098H
	DB	086H
	DB	056H
	DB	04dH
	DB	077H
	DB	058H
	DB	00H
	DB	0feH
	DB	08aH
	DB	065H
	DB	00H
	DB	0ffH
	DB	091H
	DB	06bH
	DB	00H
	DB	0ffH
	DB	093H
	DB	06cH
	DB	00H
	DB	0ffH
	DB	093H
	DB	06cH
	DB	00H
	DB	0ffH
	DB	093H
	DB	06cH
	DB	00H
	DB	0ffH
	DB	093H
	DB	06cH
	DB	00H
	DB	0ffH
	DB	093H
	DB	06cH
	DB	00H
	DB	0ffH
	DB	093H
	DB	06cH
	DB	00H
	DB	0ffH
	DB	093H
	DB	06cH
	DB	00H
	DB	0ffH
	DB	093H
	DB	06cH
	DB	00H
	DB	0ffH
	DB	093H
	DB	06cH
	DB	00H
	DB	0ffH
	DB	093H
	DB	06cH
	DB	00H
	DB	0ffH
	DB	093H
	DB	06cH
	DB	00H
	DB	0ffH
	DB	093H
	DB	06cH
	DB	00H
	DB	0ffH
	DB	093H
	DB	06cH
	DB	00H
	DB	0ffH
	DB	093H
	DB	06cH
	DB	00H
	DB	0ffH
	DB	093H
	DB	06cH
	DB	00H
	DB	0ffH
	DB	093H
	DB	06cH
	DB	00H
	DB	0ffH
	DB	093H
	DB	06cH
	DB	00H
	DB	0ffH
	DB	093H
	DB	06cH
	DB	00H
	DB	0ffH
	DB	093H
	DB	06cH
	DB	00H
	DB	0ffH
	DB	093H
	DB	06cH
	DB	00H
	DB	0ffH
	DB	093H
	DB	06cH
	DB	00H
	DB	0ffH
	DB	093H
	DB	06cH
	DB	00H
	DB	0ffH
	DB	093H
	DB	06cH
	DB	00H
	DB	0ffH
	DB	093H
	DB	06cH
	DB	00H
	DB	0ffH
	DB	093H
	DB	06cH
	DB	00H
	DB	0ffH
	DB	093H
	DB	06cH
	DB	00H
	DB	0ffH
	DB	093H
	DB	06cH
	DB	00H
	DB	0ffH
	DB	093H
	DB	06cH
	DB	00H
	DB	0ffH
	DB	093H
	DB	06cH
	DB	00H
	DB	0ffH
	DB	093H
	DB	06cH
	DB	00H
	DB	0ffH
	DB	093H
	DB	06cH
	DB	00H
	DB	0ffH
	DB	093H
	DB	06cH
	DB	00H
	DB	0ffH
	DB	093H
	DB	06cH
	DB	00H
	DB	0ffH
	DB	093H
	DB	06cH
	DB	00H
	DB	0ffH
	DB	093H
	DB	06cH
	DB	00H
	DB	0ffH
	DB	093H
	DB	06cH
	DB	00H
	DB	0ffH
	DB	093H
	DB	06cH
	DB	00H
	DB	0ffH
	DB	093H
	DB	06cH
	DB	00H
	DB	0ffH
	DB	091H
	DB	06bH
	DB	00H
	DB	0ffH
	DB	08aH
	DB	065H
	DB	00H
	DB	0ffH
	DB	077H
	DB	058H
	DB	00H
	DB	0feH
	DB	098H
	DB	087H
	DB	057H
	DB	04cH
	DB	00H
	DB	00H
	DB	00H
	DB	00H
	DB	00H
	DB	00H
	DB	00H
	DB	00H
	DB	00H
	DB	00H
	DB	00H
	DB	00H
	DB	00H
	DB	00H
	DB	00H
	DB	00H
	DB	00H
	DB	00H
	DB	00H
	DB	00H
	DB	00H
	DB	00H
	DB	00H
	DB	00H
	DB	00H
	DB	00H
	DB	00H
	DB	00H
	DB	00H
	DB	00H
	DB	00H
	DB	00H
	DB	00H
	DB	00H
	DB	00H
	DB	00H
	DB	00H
	DB	00H
	DB	00H
	DB	00H
	DB	00H
	DB	00H
	DB	00H
	DB	00H
	DB	00H
	DB	00H
	DB	00H
	DB	00H
	DB	00H
	DB	00H
	DB	00H
	DB	00H
	DB	00H
	DB	00H
	DB	00H
	DB	00H
	DB	0ffH
	DB	0ffH
	DB	0ffH
	DB	09H
	DB	077H
	DB	05eH
	DB	017H
	DB	0b5H
	DB	083H
	DB	060H
	DB	00H
	DB	0ffH
	DB	08fH
	DB	069H
	DB	00H
	DB	0ffH
	DB	092H
	DB	06dH
	DB	00H
	DB	0ffH
	DB	094H
	DB	06dH
	DB	00H
	DB	0ffH
	DB	094H
	DB	06dH
	DB	00H
	DB	0ffH
	DB	094H
	DB	06dH
	DB	00H
	DB	0ffH
	DB	094H
	DB	06dH
	DB	00H
	DB	0ffH
	DB	094H
	DB	06dH
	DB	00H
	DB	0ffH
	DB	094H
	DB	06dH
	DB	00H
	DB	0ffH
	DB	094H
	DB	06dH
	DB	00H
	DB	0ffH
	DB	094H
	DB	06dH
	DB	00H
	DB	0ffH
	DB	094H
	DB	06dH
	DB	00H
	DB	0ffH
	DB	094H
	DB	06dH
	DB	00H
	DB	0ffH
	DB	094H
	DB	06dH
	DB	00H
	DB	0ffH
	DB	094H
	DB	06dH
	DB	00H
	DB	0ffH
	DB	094H
	DB	06dH
	DB	00H
	DB	0ffH
	DB	094H
	DB	06dH
	DB	00H
	DB	0ffH
	DB	094H
	DB	06dH
	DB	00H
	DB	0ffH
	DB	094H
	DB	06dH
	DB	00H
	DB	0ffH
	DB	094H
	DB	06dH
	DB	00H
	DB	0ffH
	DB	094H
	DB	06dH
	DB	00H
	DB	0ffH
	DB	094H
	DB	06dH
	DB	00H
	DB	0ffH
	DB	094H
	DB	06dH
	DB	00H
	DB	0ffH
	DB	094H
	DB	06dH
	DB	00H
	DB	0ffH
	DB	094H
	DB	06dH
	DB	00H
	DB	0ffH
	DB	094H
	DB	06dH
	DB	00H
	DB	0ffH
	DB	094H
	DB	06dH
	DB	00H
	DB	0ffH
	DB	094H
	DB	06dH
	DB	00H
	DB	0ffH
	DB	094H
	DB	06dH
	DB	00H
	DB	0ffH
	DB	094H
	DB	06dH
	DB	00H
	DB	0ffH
	DB	094H
	DB	06dH
	DB	00H
	DB	0ffH
	DB	094H
	DB	06dH
	DB	00H
	DB	0ffH
	DB	094H
	DB	06dH
	DB	00H
	DB	0ffH
	DB	094H
	DB	06dH
	DB	00H
	DB	0ffH
	DB	094H
	DB	06dH
	DB	00H
	DB	0ffH
	DB	094H
	DB	06dH
	DB	00H
	DB	0ffH
	DB	094H
	DB	06dH
	DB	00H
	DB	0ffH
	DB	094H
	DB	06dH
	DB	00H
	DB	0ffH
	DB	094H
	DB	06dH
	DB	00H
	DB	0ffH
	DB	092H
	DB	06dH
	DB	00H
	DB	0ffH
	DB	08fH
	DB	069H
	DB	00H
	DB	0ffH
	DB	083H
	DB	060H
	DB	00H
	DB	0ffH
	DB	077H
	DB	05eH
	DB	017H
	DB	0b5H
	DB	0ffH
	DB	0ffH
	DB	0ffH
	DB	09H
	DB	00H
	DB	00H
	DB	00H
	DB	00H
	DB	00H
	DB	00H
	DB	00H
	DB	00H
	DB	00H
	DB	00H
	DB	00H
	DB	00H
	DB	00H
	DB	00H
	DB	00H
	DB	00H
	DB	00H
	DB	00H
	DB	00H
	DB	00H
	DB	00H
	DB	00H
	DB	00H
	DB	00H
	DB	00H
	DB	00H
	DB	00H
	DB	00H
	DB	00H
	DB	00H
	DB	00H
	DB	00H
	DB	00H
	DB	00H
	DB	00H
	DB	00H
	DB	00H
	DB	00H
	DB	00H
	DB	00H
	DB	00H
	DB	00H
	DB	00H
	DB	00H
	DB	00H
	DB	00H
	DB	00H
	DB	00H
	DB	00H
	DB	00H
	DB	00H
	DB	00H
	DB	00H
	DB	00H
	DB	00H
	DB	00H
	DB	00H
	DB	00H
	DB	00H
	DB	00H
	DB	0b4H
	DB	0a6H
	DB	082H
	DB	035H
	DB	072H
	DB	055H
	DB	03H
	DB	0f2H
	DB	089H
	DB	065H
	DB	00H
	DB	0ffH
	DB	091H
	DB	06bH
	DB	00H
	DB	0ffH
	DB	093H
	DB	06dH
	DB	00H
	DB	0ffH
	DB	094H
	DB	06dH
	DB	00H
	DB	0ffH
	DB	094H
	DB	06dH
	DB	00H
	DB	0ffH
	DB	094H
	DB	06dH
	DB	00H
	DB	0ffH
	DB	094H
	DB	06dH
	DB	00H
	DB	0ffH
	DB	094H
	DB	06dH
	DB	00H
	DB	0ffH
	DB	094H
	DB	06dH
	DB	00H
	DB	0ffH
	DB	094H
	DB	06dH
	DB	00H
	DB	0ffH
	DB	094H
	DB	06dH
	DB	00H
	DB	0ffH
	DB	094H
	DB	06dH
	DB	00H
	DB	0ffH
	DB	094H
	DB	06dH
	DB	00H
	DB	0ffH
	DB	094H
	DB	06dH
	DB	00H
	DB	0ffH
	DB	094H
	DB	06dH
	DB	00H
	DB	0ffH
	DB	094H
	DB	06dH
	DB	00H
	DB	0ffH
	DB	094H
	DB	06dH
	DB	00H
	DB	0ffH
	DB	094H
	DB	06dH
	DB	00H
	DB	0ffH
	DB	094H
	DB	06dH
	DB	00H
	DB	0ffH
	DB	094H
	DB	06dH
	DB	00H
	DB	0ffH
	DB	094H
	DB	06dH
	DB	00H
	DB	0ffH
	DB	094H
	DB	06dH
	DB	00H
	DB	0ffH
	DB	094H
	DB	06dH
	DB	00H
	DB	0ffH
	DB	094H
	DB	06dH
	DB	00H
	DB	0ffH
	DB	094H
	DB	06dH
	DB	00H
	DB	0ffH
	DB	094H
	DB	06dH
	DB	00H
	DB	0ffH
	DB	094H
	DB	06dH
	DB	00H
	DB	0ffH
	DB	094H
	DB	06dH
	DB	00H
	DB	0ffH
	DB	094H
	DB	06dH
	DB	00H
	DB	0ffH
	DB	094H
	DB	06dH
	DB	00H
	DB	0ffH
	DB	094H
	DB	06dH
	DB	00H
	DB	0ffH
	DB	094H
	DB	06dH
	DB	00H
	DB	0ffH
	DB	094H
	DB	06dH
	DB	00H
	DB	0ffH
	DB	094H
	DB	06dH
	DB	00H
	DB	0ffH
	DB	094H
	DB	06dH
	DB	00H
	DB	0ffH
	DB	094H
	DB	06dH
	DB	00H
	DB	0ffH
	DB	094H
	DB	06dH
	DB	00H
	DB	0ffH
	DB	093H
	DB	06dH
	DB	00H
	DB	0ffH
	DB	091H
	DB	06bH
	DB	00H
	DB	0ffH
	DB	089H
	DB	065H
	DB	00H
	DB	0ffH
	DB	072H
	DB	055H
	DB	03H
	DB	0f2H
	DB	0b4H
	DB	0a6H
	DB	082H
	DB	035H
	DB	00H
	DB	00H
	DB	00H
	DB	00H
	DB	00H
	DB	00H
	DB	00H
	DB	00H
	DB	00H
	DB	00H
	DB	00H
	DB	00H
	DB	00H
	DB	00H
	DB	00H
	DB	00H
	DB	00H
	DB	00H
	DB	00H
	DB	00H
	DB	00H
	DB	00H
	DB	00H
	DB	00H
	DB	00H
	DB	00H
	DB	00H
	DB	00H
	DB	00H
	DB	00H
	DB	00H
	DB	00H
	DB	00H
	DB	00H
	DB	00H
	DB	00H
	DB	00H
	DB	00H
	DB	00H
	DB	00H
	DB	00H
	DB	00H
	DB	00H
	DB	00H
	DB	00H
	DB	00H
	DB	00H
	DB	00H
	DB	00H
	DB	00H
	DB	00H
	DB	00H
	DB	00H
	DB	00H
	DB	00H
	DB	00H
	DB	00H
	DB	00H
	DB	00H
	DB	00H
	DB	00H
	DB	00H
	DB	00H
	DB	00H
	DB	0ffH
	DB	0ffH
	DB	0ffH
	DB	05H
	DB	08cH
	DB	077H
	DB	03eH
	DB	074H
	DB	07aH
	DB	05aH
	DB	00H
	DB	0ffH
	DB	08cH
	DB	066H
	DB	00H
	DB	0ffH
	DB	091H
	DB	06cH
	DB	00H
	DB	0ffH
	DB	094H
	DB	06dH
	DB	00H
	DB	0ffH
	DB	094H
	DB	06dH
	DB	00H
	DB	0ffH
	DB	094H
	DB	06dH
	DB	00H
	DB	0ffH
	DB	094H
	DB	06dH
	DB	00H
	DB	0ffH
	DB	094H
	DB	06dH
	DB	00H
	DB	0ffH
	DB	094H
	DB	06dH
	DB	00H
	DB	0ffH
	DB	094H
	DB	06dH
	DB	00H
	DB	0ffH
	DB	094H
	DB	06dH
	DB	00H
	DB	0ffH
	DB	094H
	DB	06dH
	DB	00H
	DB	0ffH
	DB	094H
	DB	06dH
	DB	00H
	DB	0ffH
	DB	094H
	DB	06dH
	DB	00H
	DB	0ffH
	DB	094H
	DB	06dH
	DB	00H
	DB	0ffH
	DB	094H
	DB	06dH
	DB	00H
	DB	0ffH
	DB	094H
	DB	06dH
	DB	00H
	DB	0ffH
	DB	094H
	DB	06dH
	DB	00H
	DB	0ffH
	DB	094H
	DB	06dH
	DB	00H
	DB	0ffH
	DB	094H
	DB	06dH
	DB	00H
	DB	0ffH
	DB	094H
	DB	06dH
	DB	00H
	DB	0ffH
	DB	094H
	DB	06dH
	DB	00H
	DB	0ffH
	DB	094H
	DB	06dH
	DB	00H
	DB	0ffH
	DB	094H
	DB	06dH
	DB	00H
	DB	0ffH
	DB	094H
	DB	06dH
	DB	00H
	DB	0ffH
	DB	094H
	DB	06dH
	DB	00H
	DB	0ffH
	DB	094H
	DB	06dH
	DB	00H
	DB	0ffH
	DB	094H
	DB	06dH
	DB	00H
	DB	0ffH
	DB	094H
	DB	06dH
	DB	00H
	DB	0ffH
	DB	094H
	DB	06dH
	DB	00H
	DB	0ffH
	DB	094H
	DB	06dH
	DB	00H
	DB	0ffH
	DB	094H
	DB	06dH
	DB	00H
	DB	0ffH
	DB	094H
	DB	06dH
	DB	00H
	DB	0ffH
	DB	094H
	DB	06dH
	DB	00H
	DB	0ffH
	DB	094H
	DB	06dH
	DB	00H
	DB	0ffH
	DB	094H
	DB	06dH
	DB	00H
	DB	0ffH
	DB	094H
	DB	06dH
	DB	00H
	DB	0ffH
	DB	091H
	DB	06cH
	DB	00H
	DB	0ffH
	DB	08cH
	DB	066H
	DB	00H
	DB	0ffH
	DB	07aH
	DB	05aH
	DB	00H
	DB	0ffH
	DB	08cH
	DB	077H
	DB	03eH
	DB	074H
	DB	0ffH
	DB	0ffH
	DB	0ffH
	DB	05H
	DB	00H
	DB	00H
	DB	00H
	DB	00H
	DB	00H
	DB	00H
	DB	00H
	DB	00H
	DB	00H
	DB	00H
	DB	00H
	DB	00H
	DB	00H
	DB	00H
	DB	00H
	DB	00H
	DB	00H
	DB	00H
	DB	00H
	DB	00H
	DB	00H
	DB	00H
	DB	00H
	DB	00H
	DB	00H
	DB	00H
	DB	00H
	DB	00H
	DB	00H
	DB	00H
	DB	00H
	DB	00H
	DB	00H
	DB	00H
	DB	00H
	DB	00H
	DB	00H
	DB	00H
	DB	00H
	DB	00H
	DB	00H
	DB	00H
	DB	00H
	DB	00H
	DB	00H
	DB	00H
	DB	00H
	DB	00H
	DB	00H
	DB	00H
	DB	00H
	DB	00H
	DB	00H
	DB	00H
	DB	00H
	DB	00H
	DB	00H
	DB	00H
	DB	00H
	DB	00H
	DB	00H
	DB	00H
	DB	00H
	DB	00H
	DB	00H
	DB	00H
	DB	00H
	DB	00H
	DB	0ffH
	DB	0ffH
	DB	0ffH
	DB	010H
	DB	079H
	DB	061H
	DB	01cH
	DB	0aaH
	DB	082H
	DB	060H
	DB	00H
	DB	0ffH
	DB	08eH
	DB	069H
	DB	00H
	DB	0ffH
	DB	093H
	DB	06dH
	DB	00H
	DB	0ffH
	DB	095H
	DB	06eH
	DB	00H
	DB	0ffH
	DB	095H
	DB	06eH
	DB	00H
	DB	0ffH
	DB	095H
	DB	06eH
	DB	00H
	DB	0ffH
	DB	095H
	DB	06eH
	DB	00H
	DB	0ffH
	DB	095H
	DB	06eH
	DB	00H
	DB	0ffH
	DB	095H
	DB	06eH
	DB	00H
	DB	0ffH
	DB	095H
	DB	06eH
	DB	00H
	DB	0ffH
	DB	095H
	DB	06eH
	DB	00H
	DB	0ffH
	DB	095H
	DB	06eH
	DB	00H
	DB	0ffH
	DB	095H
	DB	06eH
	DB	00H
	DB	0ffH
	DB	095H
	DB	06eH
	DB	00H
	DB	0ffH
	DB	095H
	DB	06eH
	DB	00H
	DB	0ffH
	DB	095H
	DB	06eH
	DB	00H
	DB	0ffH
	DB	095H
	DB	06eH
	DB	00H
	DB	0ffH
	DB	095H
	DB	06eH
	DB	00H
	DB	0ffH
	DB	095H
	DB	06eH
	DB	00H
	DB	0ffH
	DB	095H
	DB	06eH
	DB	00H
	DB	0ffH
	DB	095H
	DB	06eH
	DB	00H
	DB	0ffH
	DB	095H
	DB	06eH
	DB	00H
	DB	0ffH
	DB	095H
	DB	06eH
	DB	00H
	DB	0ffH
	DB	095H
	DB	06eH
	DB	00H
	DB	0ffH
	DB	095H
	DB	06eH
	DB	00H
	DB	0ffH
	DB	095H
	DB	06eH
	DB	00H
	DB	0ffH
	DB	095H
	DB	06eH
	DB	00H
	DB	0ffH
	DB	095H
	DB	06eH
	DB	00H
	DB	0ffH
	DB	095H
	DB	06eH
	DB	00H
	DB	0ffH
	DB	095H
	DB	06eH
	DB	00H
	DB	0ffH
	DB	095H
	DB	06eH
	DB	00H
	DB	0ffH
	DB	095H
	DB	06eH
	DB	00H
	DB	0ffH
	DB	095H
	DB	06eH
	DB	00H
	DB	0ffH
	DB	095H
	DB	06eH
	DB	00H
	DB	0ffH
	DB	095H
	DB	06eH
	DB	00H
	DB	0ffH
	DB	093H
	DB	06dH
	DB	00H
	DB	0ffH
	DB	08eH
	DB	069H
	DB	00H
	DB	0ffH
	DB	082H
	DB	060H
	DB	00H
	DB	0ffH
	DB	079H
	DB	061H
	DB	01cH
	DB	0abH
	DB	0ffH
	DB	0ffH
	DB	0ffH
	DB	010H
	DB	00H
	DB	00H
	DB	00H
	DB	00H
	DB	00H
	DB	00H
	DB	00H
	DB	00H
	DB	00H
	DB	00H
	DB	00H
	DB	00H
	DB	00H
	DB	00H
	DB	00H
	DB	00H
	DB	00H
	DB	00H
	DB	00H
	DB	00H
	DB	00H
	DB	00H
	DB	00H
	DB	00H
	DB	00H
	DB	00H
	DB	00H
	DB	00H
	DB	00H
	DB	00H
	DB	00H
	DB	00H
	DB	00H
	DB	00H
	DB	00H
	DB	00H
	DB	00H
	DB	00H
	DB	00H
	DB	00H
	DB	00H
	DB	00H
	DB	00H
	DB	00H
	DB	00H
	DB	00H
	DB	00H
	DB	00H
	DB	00H
	DB	00H
	DB	00H
	DB	00H
	DB	00H
	DB	00H
	DB	00H
	DB	00H
	DB	00H
	DB	00H
	DB	00H
	DB	00H
	DB	00H
	DB	00H
	DB	00H
	DB	00H
	DB	00H
	DB	00H
	DB	00H
	DB	00H
	DB	00H
	DB	00H
	DB	00H
	DB	00H
	DB	00H
	DB	00H
	DB	00H
	DB	00H
	DB	0e2H
	DB	0ddH
	DB	0cfH
	DB	020H
	DB	076H
	DB	05aH
	DB	0fH
	DB	0c9H
	DB	085H
	DB	062H
	DB	00H
	DB	0ffH
	DB	08fH
	DB	06aH
	DB	00H
	DB	0ffH
	DB	093H
	DB	06dH
	DB	00H
	DB	0ffH
	DB	095H
	DB	06eH
	DB	00H
	DB	0ffH
	DB	095H
	DB	06eH
	DB	00H
	DB	0ffH
	DB	095H
	DB	06eH
	DB	00H
	DB	0ffH
	DB	095H
	DB	06eH
	DB	00H
	DB	0ffH
	DB	095H
	DB	06eH
	DB	00H
	DB	0ffH
	DB	095H
	DB	06eH
	DB	00H
	DB	0ffH
	DB	095H
	DB	06eH
	DB	00H
	DB	0ffH
	DB	095H
	DB	06eH
	DB	00H
	DB	0ffH
	DB	095H
	DB	06eH
	DB	00H
	DB	0ffH
	DB	095H
	DB	06eH
	DB	00H
	DB	0ffH
	DB	095H
	DB	06eH
	DB	00H
	DB	0ffH
	DB	095H
	DB	06eH
	DB	00H
	DB	0ffH
	DB	095H
	DB	06eH
	DB	00H
	DB	0ffH
	DB	095H
	DB	06eH
	DB	00H
	DB	0ffH
	DB	095H
	DB	06eH
	DB	00H
	DB	0ffH
	DB	095H
	DB	06eH
	DB	00H
	DB	0ffH
	DB	095H
	DB	06eH
	DB	00H
	DB	0ffH
	DB	095H
	DB	06eH
	DB	00H
	DB	0ffH
	DB	095H
	DB	06eH
	DB	00H
	DB	0ffH
	DB	095H
	DB	06eH
	DB	00H
	DB	0ffH
	DB	095H
	DB	06eH
	DB	00H
	DB	0ffH
	DB	095H
	DB	06eH
	DB	00H
	DB	0ffH
	DB	095H
	DB	06eH
	DB	00H
	DB	0ffH
	DB	095H
	DB	06eH
	DB	00H
	DB	0ffH
	DB	095H
	DB	06eH
	DB	00H
	DB	0ffH
	DB	095H
	DB	06eH
	DB	00H
	DB	0ffH
	DB	095H
	DB	06eH
	DB	00H
	DB	0ffH
	DB	095H
	DB	06eH
	DB	00H
	DB	0ffH
	DB	095H
	DB	06eH
	DB	00H
	DB	0ffH
	DB	095H
	DB	06eH
	DB	00H
	DB	0ffH
	DB	093H
	DB	06dH
	DB	00H
	DB	0ffH
	DB	08fH
	DB	06aH
	DB	00H
	DB	0ffH
	DB	085H
	DB	062H
	DB	00H
	DB	0ffH
	DB	076H
	DB	05aH
	DB	0fH
	DB	0c9H
	DB	0e2H
	DB	0ddH
	DB	0cfH
	DB	020H
	DB	00H
	DB	00H
	DB	00H
	DB	00H
	DB	00H
	DB	00H
	DB	00H
	DB	00H
	DB	00H
	DB	00H
	DB	00H
	DB	00H
	DB	00H
	DB	00H
	DB	00H
	DB	00H
	DB	00H
	DB	00H
	DB	00H
	DB	00H
	DB	00H
	DB	00H
	DB	00H
	DB	00H
	DB	00H
	DB	00H
	DB	00H
	DB	00H
	DB	00H
	DB	00H
	DB	00H
	DB	00H
	DB	00H
	DB	00H
	DB	00H
	DB	00H
	DB	00H
	DB	00H
	DB	00H
	DB	00H
	DB	00H
	DB	00H
	DB	00H
	DB	00H
	DB	00H
	DB	00H
	DB	00H
	DB	00H
	DB	00H
	DB	00H
	DB	00H
	DB	00H
	DB	00H
	DB	00H
	DB	00H
	DB	00H
	DB	00H
	DB	00H
	DB	00H
	DB	00H
	DB	00H
	DB	00H
	DB	00H
	DB	00H
	DB	00H
	DB	00H
	DB	00H
	DB	00H
	DB	00H
	DB	00H
	DB	00H
	DB	00H
	DB	00H
	DB	00H
	DB	00H
	DB	00H
	DB	00H
	DB	00H
	DB	00H
	DB	00H
	DB	0ffH
	DB	0ffH
	DB	0ffH
	DB	01H
	DB	0dcH
	DB	0d6H
	DB	0c4H
	DB	02bH
	DB	075H
	DB	05aH
	DB	0cH
	DB	0d0H
	DB	084H
	DB	061H
	DB	00H
	DB	0ffH
	DB	08fH
	DB	069H
	DB	00H
	DB	0ffH
	DB	092H
	DB	06dH
	DB	00H
	DB	0ffH
	DB	094H
	DB	06eH
	DB	00H
	DB	0ffH
	DB	095H
	DB	06eH
	DB	00H
	DB	0ffH
	DB	095H
	DB	06eH
	DB	00H
	DB	0ffH
	DB	095H
	DB	06eH
	DB	00H
	DB	0ffH
	DB	095H
	DB	06eH
	DB	00H
	DB	0ffH
	DB	095H
	DB	06eH
	DB	00H
	DB	0ffH
	DB	095H
	DB	06eH
	DB	00H
	DB	0ffH
	DB	095H
	DB	06eH
	DB	00H
	DB	0ffH
	DB	095H
	DB	06eH
	DB	00H
	DB	0ffH
	DB	095H
	DB	06eH
	DB	00H
	DB	0ffH
	DB	095H
	DB	06eH
	DB	00H
	DB	0ffH
	DB	095H
	DB	06eH
	DB	00H
	DB	0ffH
	DB	095H
	DB	06eH
	DB	00H
	DB	0ffH
	DB	095H
	DB	06eH
	DB	00H
	DB	0ffH
	DB	095H
	DB	06eH
	DB	00H
	DB	0ffH
	DB	095H
	DB	06eH
	DB	00H
	DB	0ffH
	DB	095H
	DB	06eH
	DB	00H
	DB	0ffH
	DB	095H
	DB	06eH
	DB	00H
	DB	0ffH
	DB	095H
	DB	06eH
	DB	00H
	DB	0ffH
	DB	095H
	DB	06eH
	DB	00H
	DB	0ffH
	DB	095H
	DB	06eH
	DB	00H
	DB	0ffH
	DB	095H
	DB	06eH
	DB	00H
	DB	0ffH
	DB	095H
	DB	06eH
	DB	00H
	DB	0ffH
	DB	095H
	DB	06eH
	DB	00H
	DB	0ffH
	DB	095H
	DB	06eH
	DB	00H
	DB	0ffH
	DB	095H
	DB	06eH
	DB	00H
	DB	0ffH
	DB	095H
	DB	06eH
	DB	00H
	DB	0ffH
	DB	094H
	DB	06eH
	DB	00H
	DB	0ffH
	DB	092H
	DB	06dH
	DB	00H
	DB	0ffH
	DB	08fH
	DB	069H
	DB	00H
	DB	0ffH
	DB	084H
	DB	061H
	DB	00H
	DB	0ffH
	DB	075H
	DB	05aH
	DB	0cH
	DB	0d0H
	DB	0dcH
	DB	0d6H
	DB	0c4H
	DB	02bH
	DB	0ffH
	DB	0ffH
	DB	0ffH
	DB	01H
	DB	00H
	DB	00H
	DB	00H
	DB	00H
	DB	00H
	DB	00H
	DB	00H
	DB	00H
	DB	00H
	DB	00H
	DB	00H
	DB	00H
	DB	00H
	DB	00H
	DB	00H
	DB	00H
	DB	00H
	DB	00H
	DB	00H
	DB	00H
	DB	00H
	DB	00H
	DB	00H
	DB	00H
	DB	00H
	DB	00H
	DB	00H
	DB	00H
	DB	00H
	DB	00H
	DB	00H
	DB	00H
	DB	00H
	DB	00H
	DB	00H
	DB	00H
	DB	00H
	DB	00H
	DB	00H
	DB	00H
	DB	00H
	DB	00H
	DB	00H
	DB	00H
	DB	00H
	DB	00H
	DB	00H
	DB	00H
	DB	00H
	DB	00H
	DB	00H
	DB	00H
	DB	00H
	DB	00H
	DB	00H
	DB	00H
	DB	00H
	DB	00H
	DB	00H
	DB	00H
	DB	00H
	DB	00H
	DB	00H
	DB	00H
	DB	00H
	DB	00H
	DB	00H
	DB	00H
	DB	00H
	DB	00H
	DB	00H
	DB	00H
	DB	00H
	DB	00H
	DB	00H
	DB	00H
	DB	00H
	DB	00H
	DB	00H
	DB	00H
	DB	00H
	DB	00H
	DB	00H
	DB	00H
	DB	0ffH
	DB	0ffH
	DB	0ffH
	DB	02H
	DB	0d7H
	DB	0d0H
	DB	0bcH
	DB	02eH
	DB	079H
	DB	05dH
	DB	011H
	DB	0c6H
	DB	080H
	DB	05eH
	DB	00H
	DB	0ffH
	DB	08fH
	DB	068H
	DB	00H
	DB	0ffH
	DB	093H
	DB	06cH
	DB	00H
	DB	0ffH
	DB	095H
	DB	06eH
	DB	00H
	DB	0ffH
	DB	096H
	DB	06eH
	DB	00H
	DB	0ffH
	DB	096H
	DB	06eH
	DB	00H
	DB	0ffH
	DB	096H
	DB	06eH
	DB	00H
	DB	0ffH
	DB	096H
	DB	06eH
	DB	00H
	DB	0ffH
	DB	096H
	DB	06eH
	DB	00H
	DB	0ffH
	DB	096H
	DB	06eH
	DB	00H
	DB	0ffH
	DB	096H
	DB	06eH
	DB	00H
	DB	0ffH
	DB	096H
	DB	06eH
	DB	00H
	DB	0ffH
	DB	096H
	DB	06eH
	DB	00H
	DB	0ffH
	DB	096H
	DB	06eH
	DB	00H
	DB	0ffH
	DB	096H
	DB	06eH
	DB	00H
	DB	0ffH
	DB	096H
	DB	06eH
	DB	00H
	DB	0ffH
	DB	096H
	DB	06eH
	DB	00H
	DB	0ffH
	DB	096H
	DB	06eH
	DB	00H
	DB	0ffH
	DB	096H
	DB	06eH
	DB	00H
	DB	0ffH
	DB	096H
	DB	06eH
	DB	00H
	DB	0ffH
	DB	096H
	DB	06eH
	DB	00H
	DB	0ffH
	DB	096H
	DB	06eH
	DB	00H
	DB	0ffH
	DB	096H
	DB	06eH
	DB	00H
	DB	0ffH
	DB	096H
	DB	06eH
	DB	00H
	DB	0ffH
	DB	096H
	DB	06eH
	DB	00H
	DB	0ffH
	DB	096H
	DB	06eH
	DB	00H
	DB	0ffH
	DB	096H
	DB	06eH
	DB	00H
	DB	0ffH
	DB	096H
	DB	06eH
	DB	00H
	DB	0ffH
	DB	095H
	DB	06eH
	DB	00H
	DB	0ffH
	DB	093H
	DB	06cH
	DB	00H
	DB	0ffH
	DB	08fH
	DB	068H
	DB	00H
	DB	0ffH
	DB	080H
	DB	05eH
	DB	00H
	DB	0ffH
	DB	079H
	DB	05dH
	DB	011H
	DB	0c6H
	DB	0d7H
	DB	0d0H
	DB	0bcH
	DB	02eH
	DB	0ffH
	DB	0ffH
	DB	0ffH
	DB	02H
	DB	00H
	DB	00H
	DB	00H
	DB	00H
	DB	00H
	DB	00H
	DB	00H
	DB	00H
	DB	00H
	DB	00H
	DB	00H
	DB	00H
	DB	00H
	DB	00H
	DB	00H
	DB	00H
	DB	00H
	DB	00H
	DB	00H
	DB	00H
	DB	00H
	DB	00H
	DB	00H
	DB	00H
	DB	00H
	DB	00H
	DB	00H
	DB	00H
	DB	00H
	DB	00H
	DB	00H
	DB	00H
	DB	00H
	DB	00H
	DB	00H
	DB	00H
	DB	00H
	DB	00H
	DB	00H
	DB	00H
	DB	00H
	DB	00H
	DB	00H
	DB	00H
	DB	00H
	DB	00H
	DB	00H
	DB	00H
	DB	00H
	DB	00H
	DB	00H
	DB	00H
	DB	00H
	DB	00H
	DB	00H
	DB	00H
	DB	00H
	DB	00H
	DB	00H
	DB	00H
	DB	00H
	DB	00H
	DB	00H
	DB	00H
	DB	00H
	DB	00H
	DB	00H
	DB	00H
	DB	00H
	DB	00H
	DB	00H
	DB	00H
	DB	00H
	DB	00H
	DB	00H
	DB	00H
	DB	00H
	DB	00H
	DB	00H
	DB	00H
	DB	00H
	DB	00H
	DB	00H
	DB	00H
	DB	00H
	DB	00H
	DB	00H
	DB	00H
	DB	00H
	DB	00H
	DB	00H
	DB	00H
	DB	0ffH
	DB	0ffH
	DB	0ffH
	DB	02H
	DB	0e7H
	DB	0e3H
	DB	0d7H
	DB	026H
	DB	07cH
	DB	063H
	DB	01cH
	DB	0abH
	DB	07aH
	DB	05aH
	DB	00H
	DB	0ffH
	DB	08cH
	DB	068H
	DB	00H
	DB	0ffH
	DB	091H
	DB	06cH
	DB	00H
	DB	0ffH
	DB	095H
	DB	06eH
	DB	00H
	DB	0ffH
	DB	096H
	DB	06fH
	DB	00H
	DB	0ffH
	DB	096H
	DB	06fH
	DB	00H
	DB	0ffH
	DB	096H
	DB	06fH
	DB	00H
	DB	0ffH
	DB	096H
	DB	06fH
	DB	00H
	DB	0ffH
	DB	096H
	DB	06fH
	DB	00H
	DB	0ffH
	DB	096H
	DB	06fH
	DB	00H
	DB	0ffH
	DB	096H
	DB	06fH
	DB	00H
	DB	0ffH
	DB	096H
	DB	06fH
	DB	00H
	DB	0ffH
	DB	096H
	DB	06fH
	DB	00H
	DB	0ffH
	DB	096H
	DB	06fH
	DB	00H
	DB	0ffH
	DB	096H
	DB	06fH
	DB	00H
	DB	0ffH
	DB	096H
	DB	06fH
	DB	00H
	DB	0ffH
	DB	096H
	DB	06fH
	DB	00H
	DB	0ffH
	DB	096H
	DB	06fH
	DB	00H
	DB	0ffH
	DB	096H
	DB	06fH
	DB	00H
	DB	0ffH
	DB	096H
	DB	06fH
	DB	00H
	DB	0ffH
	DB	096H
	DB	06fH
	DB	00H
	DB	0ffH
	DB	096H
	DB	06fH
	DB	00H
	DB	0ffH
	DB	096H
	DB	06fH
	DB	00H
	DB	0ffH
	DB	096H
	DB	06fH
	DB	00H
	DB	0ffH
	DB	096H
	DB	06fH
	DB	00H
	DB	0ffH
	DB	096H
	DB	06fH
	DB	00H
	DB	0ffH
	DB	095H
	DB	06eH
	DB	00H
	DB	0ffH
	DB	091H
	DB	06cH
	DB	00H
	DB	0ffH
	DB	08cH
	DB	068H
	DB	00H
	DB	0ffH
	DB	07aH
	DB	05aH
	DB	00H
	DB	0ffH
	DB	07cH
	DB	063H
	DB	01cH
	DB	0abH
	DB	0e7H
	DB	0e3H
	DB	0d7H
	DB	026H
	DB	0ffH
	DB	0ffH
	DB	0ffH
	DB	02H
	DB	00H
	DB	00H
	DB	00H
	DB	00H
	DB	00H
	DB	00H
	DB	00H
	DB	00H
	DB	00H
	DB	00H
	DB	00H
	DB	00H
	DB	00H
	DB	00H
	DB	00H
	DB	00H
	DB	00H
	DB	00H
	DB	00H
	DB	00H
	DB	00H
	DB	00H
	DB	00H
	DB	00H
	DB	00H
	DB	00H
	DB	00H
	DB	00H
	DB	00H
	DB	00H
	DB	00H
	DB	00H
	DB	00H
	DB	00H
	DB	00H
	DB	00H
	DB	00H
	DB	00H
	DB	00H
	DB	00H
	DB	00H
	DB	00H
	DB	00H
	DB	00H
	DB	00H
	DB	00H
	DB	00H
	DB	00H
	DB	00H
	DB	00H
	DB	00H
	DB	00H
	DB	00H
	DB	00H
	DB	00H
	DB	00H
	DB	00H
	DB	00H
	DB	00H
	DB	00H
	DB	00H
	DB	00H
	DB	00H
	DB	00H
	DB	00H
	DB	00H
	DB	00H
	DB	00H
	DB	00H
	DB	00H
	DB	00H
	DB	00H
	DB	00H
	DB	00H
	DB	00H
	DB	00H
	DB	00H
	DB	00H
	DB	00H
	DB	00H
	DB	00H
	DB	00H
	DB	00H
	DB	00H
	DB	00H
	DB	00H
	DB	00H
	DB	00H
	DB	00H
	DB	00H
	DB	00H
	DB	00H
	DB	00H
	DB	00H
	DB	00H
	DB	00H
	DB	00H
	DB	00H
	DB	00H
	DB	00H
	DB	0ffH
	DB	0ffH
	DB	0ffH
	DB	01H
	DB	0ffH
	DB	0ffH
	DB	0ffH
	DB	01bH
	DB	092H
	DB	07eH
	DB	044H
	DB	074H
	DB	076H
	DB	057H
	DB	03H
	DB	0f2H
	DB	084H
	DB	061H
	DB	00H
	DB	0ffH
	DB	08fH
	DB	069H
	DB	00H
	DB	0ffH
	DB	092H
	DB	06dH
	DB	00H
	DB	0ffH
	DB	095H
	DB	06eH
	DB	00H
	DB	0ffH
	DB	096H
	DB	06fH
	DB	00H
	DB	0ffH
	DB	096H
	DB	06fH
	DB	00H
	DB	0ffH
	DB	096H
	DB	06fH
	DB	00H
	DB	0ffH
	DB	096H
	DB	06fH
	DB	00H
	DB	0ffH
	DB	096H
	DB	06fH
	DB	00H
	DB	0ffH
	DB	096H
	DB	06fH
	DB	00H
	DB	0ffH
	DB	096H
	DB	06fH
	DB	00H
	DB	0ffH
	DB	096H
	DB	06fH
	DB	00H
	DB	0ffH
	DB	096H
	DB	06fH
	DB	00H
	DB	0ffH
	DB	096H
	DB	06fH
	DB	00H
	DB	0ffH
	DB	096H
	DB	06fH
	DB	00H
	DB	0ffH
	DB	096H
	DB	06fH
	DB	00H
	DB	0ffH
	DB	096H
	DB	06fH
	DB	00H
	DB	0ffH
	DB	096H
	DB	06fH
	DB	00H
	DB	0ffH
	DB	096H
	DB	06fH
	DB	00H
	DB	0ffH
	DB	096H
	DB	06fH
	DB	00H
	DB	0ffH
	DB	096H
	DB	06fH
	DB	00H
	DB	0ffH
	DB	096H
	DB	06fH
	DB	00H
	DB	0ffH
	DB	095H
	DB	06eH
	DB	00H
	DB	0ffH
	DB	092H
	DB	06dH
	DB	00H
	DB	0ffH
	DB	08fH
	DB	069H
	DB	00H
	DB	0ffH
	DB	084H
	DB	061H
	DB	00H
	DB	0ffH
	DB	076H
	DB	057H
	DB	03H
	DB	0f2H
	DB	091H
	DB	07dH
	DB	042H
	DB	074H
	DB	0ffH
	DB	0ffH
	DB	0ffH
	DB	01bH
	DB	0ffH
	DB	0ffH
	DB	0ffH
	DB	01H
	DB	00H
	DB	00H
	DB	00H
	DB	00H
	DB	00H
	DB	00H
	DB	00H
	DB	00H
	DB	00H
	DB	00H
	DB	00H
	DB	00H
	DB	00H
	DB	00H
	DB	00H
	DB	00H
	DB	00H
	DB	00H
	DB	00H
	DB	00H
	DB	00H
	DB	00H
	DB	00H
	DB	00H
	DB	00H
	DB	00H
	DB	00H
	DB	00H
	DB	00H
	DB	00H
	DB	00H
	DB	00H
	DB	00H
	DB	00H
	DB	00H
	DB	00H
	DB	00H
	DB	00H
	DB	00H
	DB	00H
	DB	00H
	DB	00H
	DB	00H
	DB	00H
	DB	00H
	DB	00H
	DB	00H
	DB	00H
	DB	00H
	DB	00H
	DB	00H
	DB	00H
	DB	00H
	DB	00H
	DB	00H
	DB	00H
	DB	00H
	DB	00H
	DB	00H
	DB	00H
	DB	00H
	DB	00H
	DB	00H
	DB	00H
	DB	00H
	DB	00H
	DB	00H
	DB	00H
	DB	00H
	DB	00H
	DB	00H
	DB	00H
	DB	00H
	DB	00H
	DB	00H
	DB	00H
	DB	00H
	DB	00H
	DB	00H
	DB	00H
	DB	00H
	DB	00H
	DB	00H
	DB	00H
	DB	00H
	DB	00H
	DB	00H
	DB	00H
	DB	00H
	DB	00H
	DB	00H
	DB	00H
	DB	00H
	DB	00H
	DB	00H
	DB	00H
	DB	00H
	DB	00H
	DB	00H
	DB	00H
	DB	00H
	DB	00H
	DB	00H
	DB	00H
	DB	00H
	DB	00H
	DB	00H
	DB	00H
	DB	00H
	DB	00H
	DB	00H
	DB	00H
	DB	0ffH
	DB	0ffH
	DB	0ffH
	DB	0fH
	DB	0c9H
	DB	0bfH
	DB	0a3H
	DB	03dH
	DB	07dH
	DB	062H
	DB	018H
	DB	0b2H
	DB	078H
	DB	059H
	DB	00H
	DB	0feH
	DB	087H
	DB	064H
	DB	00H
	DB	0ffH
	DB	08fH
	DB	06aH
	DB	00H
	DB	0ffH
	DB	092H
	DB	06cH
	DB	00H
	DB	0ffH
	DB	095H
	DB	06eH
	DB	00H
	DB	0ffH
	DB	096H
	DB	06fH
	DB	00H
	DB	0ffH
	DB	097H
	DB	06fH
	DB	00H
	DB	0ffH
	DB	097H
	DB	06fH
	DB	00H
	DB	0ffH
	DB	097H
	DB	06fH
	DB	00H
	DB	0ffH
	DB	097H
	DB	06fH
	DB	00H
	DB	0ffH
	DB	097H
	DB	06fH
	DB	00H
	DB	0ffH
	DB	097H
	DB	06fH
	DB	00H
	DB	0ffH
	DB	097H
	DB	06fH
	DB	00H
	DB	0ffH
	DB	097H
	DB	06fH
	DB	00H
	DB	0ffH
	DB	097H
	DB	06fH
	DB	00H
	DB	0ffH
	DB	097H
	DB	06fH
	DB	00H
	DB	0ffH
	DB	097H
	DB	06fH
	DB	00H
	DB	0ffH
	DB	097H
	DB	06fH
	DB	00H
	DB	0ffH
	DB	096H
	DB	06fH
	DB	00H
	DB	0ffH
	DB	095H
	DB	06eH
	DB	00H
	DB	0ffH
	DB	092H
	DB	06cH
	DB	00H
	DB	0ffH
	DB	08fH
	DB	06aH
	DB	00H
	DB	0ffH
	DB	087H
	DB	064H
	DB	00H
	DB	0ffH
	DB	078H
	DB	059H
	DB	00H
	DB	0feH
	DB	07dH
	DB	062H
	DB	018H
	DB	0b2H
	DB	0c9H
	DB	0bfH
	DB	0a3H
	DB	03dH
	DB	0ffH
	DB	0ffH
	DB	0ffH
	DB	010H
	DB	00H
	DB	00H
	DB	00H
	DB	00H
	DB	00H
	DB	00H
	DB	00H
	DB	00H
	DB	00H
	DB	00H
	DB	00H
	DB	00H
	DB	00H
	DB	00H
	DB	00H
	DB	00H
	DB	00H
	DB	00H
	DB	00H
	DB	00H
	DB	00H
	DB	00H
	DB	00H
	DB	00H
	DB	00H
	DB	00H
	DB	00H
	DB	00H
	DB	00H
	DB	00H
	DB	00H
	DB	00H
	DB	00H
	DB	00H
	DB	00H
	DB	00H
	DB	00H
	DB	00H
	DB	00H
	DB	00H
	DB	00H
	DB	00H
	DB	00H
	DB	00H
	DB	00H
	DB	00H
	DB	00H
	DB	00H
	DB	00H
	DB	00H
	DB	00H
	DB	00H
	DB	00H
	DB	00H
	DB	00H
	DB	00H
	DB	00H
	DB	00H
	DB	00H
	DB	00H
	DB	00H
	DB	00H
	DB	00H
	DB	00H
	DB	00H
	DB	00H
	DB	00H
	DB	00H
	DB	00H
	DB	00H
	DB	00H
	DB	00H
	DB	00H
	DB	00H
	DB	00H
	DB	00H
	DB	00H
	DB	00H
	DB	00H
	DB	00H
	DB	00H
	DB	00H
	DB	00H
	DB	00H
	DB	00H
	DB	00H
	DB	00H
	DB	00H
	DB	00H
	DB	00H
	DB	00H
	DB	00H
	DB	00H
	DB	00H
	DB	00H
	DB	00H
	DB	00H
	DB	00H
	DB	00H
	DB	00H
	DB	00H
	DB	00H
	DB	00H
	DB	00H
	DB	00H
	DB	00H
	DB	00H
	DB	00H
	DB	00H
	DB	00H
	DB	00H
	DB	00H
	DB	00H
	DB	00H
	DB	00H
	DB	00H
	DB	00H
	DB	00H
	DB	00H
	DB	00H
	DB	00H
	DB	00H
	DB	00H
	DB	00H
	DB	0ffH
	DB	0ffH
	DB	0ffH
	DB	04H
	DB	0ffH
	DB	0ffH
	DB	0ffH
	DB	01dH
	DB	0acH
	DB	09cH
	DB	06fH
	DB	055H
	DB	07cH
	DB	061H
	DB	015H
	DB	0b9H
	DB	078H
	DB	058H
	DB	00H
	DB	0fdH
	DB	081H
	DB	05fH
	DB	00H
	DB	0ffH
	DB	08cH
	DB	067H
	DB	00H
	DB	0ffH
	DB	090H
	DB	06bH
	DB	00H
	DB	0ffH
	DB	093H
	DB	06cH
	DB	00H
	DB	0ffH
	DB	094H
	DB	06dH
	DB	00H
	DB	0ffH
	DB	095H
	DB	06eH
	DB	00H
	DB	0ffH
	DB	096H
	DB	06eH
	DB	00H
	DB	0ffH
	DB	096H
	DB	06fH
	DB	00H
	DB	0ffH
	DB	096H
	DB	06fH
	DB	00H
	DB	0ffH
	DB	096H
	DB	06fH
	DB	00H
	DB	0ffH
	DB	096H
	DB	06fH
	DB	00H
	DB	0ffH
	DB	096H
	DB	06eH
	DB	00H
	DB	0ffH
	DB	095H
	DB	06eH
	DB	00H
	DB	0ffH
	DB	094H
	DB	06dH
	DB	00H
	DB	0ffH
	DB	093H
	DB	06cH
	DB	00H
	DB	0ffH
	DB	090H
	DB	06bH
	DB	00H
	DB	0ffH
	DB	08cH
	DB	067H
	DB	00H
	DB	0ffH
	DB	081H
	DB	05fH
	DB	00H
	DB	0ffH
	DB	078H
	DB	059H
	DB	00H
	DB	0fdH
	DB	07cH
	DB	061H
	DB	015H
	DB	0b9H
	DB	0acH
	DB	09cH
	DB	06fH
	DB	055H
	DB	0ffH
	DB	0ffH
	DB	0ffH
	DB	01dH
	DB	0ffH
	DB	0ffH
	DB	0ffH
	DB	04H
	DB	00H
	DB	00H
	DB	00H
	DB	00H
	DB	00H
	DB	00H
	DB	00H
	DB	00H
	DB	00H
	DB	00H
	DB	00H
	DB	00H
	DB	00H
	DB	00H
	DB	00H
	DB	00H
	DB	00H
	DB	00H
	DB	00H
	DB	00H
	DB	00H
	DB	00H
	DB	00H
	DB	00H
	DB	00H
	DB	00H
	DB	00H
	DB	00H
	DB	00H
	DB	00H
	DB	00H
	DB	00H
	DB	00H
	DB	00H
	DB	00H
	DB	00H
	DB	00H
	DB	00H
	DB	00H
	DB	00H
	DB	00H
	DB	00H
	DB	00H
	DB	00H
	DB	00H
	DB	00H
	DB	00H
	DB	00H
	DB	00H
	DB	00H
	DB	00H
	DB	00H
	DB	00H
	DB	00H
	DB	00H
	DB	00H
	DB	00H
	DB	00H
	DB	00H
	DB	00H
	DB	00H
	DB	00H
	DB	00H
	DB	00H
	DB	00H
	DB	00H
	DB	00H
	DB	00H
	DB	00H
	DB	00H
	DB	00H
	DB	00H
	DB	00H
	DB	00H
	DB	00H
	DB	00H
	DB	00H
	DB	00H
	DB	00H
	DB	00H
	DB	00H
	DB	00H
	DB	00H
	DB	00H
	DB	00H
	DB	00H
	DB	00H
	DB	00H
	DB	00H
	DB	00H
	DB	00H
	DB	00H
	DB	00H
	DB	00H
	DB	00H
	DB	00H
	DB	00H
	DB	00H
	DB	00H
	DB	00H
	DB	00H
	DB	00H
	DB	00H
	DB	00H
	DB	00H
	DB	00H
	DB	00H
	DB	00H
	DB	00H
	DB	00H
	DB	00H
	DB	00H
	DB	00H
	DB	00H
	DB	00H
	DB	00H
	DB	00H
	DB	00H
	DB	00H
	DB	00H
	DB	00H
	DB	00H
	DB	00H
	DB	00H
	DB	00H
	DB	00H
	DB	00H
	DB	00H
	DB	00H
	DB	00H
	DB	00H
	DB	00H
	DB	00H
	DB	00H
	DB	00H
	DB	00H
	DB	0ffH
	DB	0ffH
	DB	0ffH
	DB	09H
	DB	0ffH
	DB	0ffH
	DB	0ffH
	DB	01fH
	DB	0c1H
	DB	0b5H
	DB	093H
	DB	047H
	DB	085H
	DB	06dH
	DB	028H
	DB	094H
	DB	078H
	DB	05bH
	DB	08H
	DB	0ddH
	DB	079H
	DB	059H
	DB	00H
	DB	0ffH
	DB	07eH
	DB	05eH
	DB	00H
	DB	0ffH
	DB	086H
	DB	063H
	DB	00H
	DB	0ffH
	DB	08bH
	DB	067H
	DB	00H
	DB	0ffH
	DB	08dH
	DB	06aH
	DB	00H
	DB	0ffH
	DB	08fH
	DB	06bH
	DB	00H
	DB	0ffH
	DB	090H
	DB	06bH
	DB	00H
	DB	0ffH
	DB	090H
	DB	06bH
	DB	00H
	DB	0ffH
	DB	08fH
	DB	06bH
	DB	00H
	DB	0ffH
	DB	08dH
	DB	06aH
	DB	00H
	DB	0ffH
	DB	08bH
	DB	067H
	DB	00H
	DB	0ffH
	DB	086H
	DB	063H
	DB	00H
	DB	0ffH
	DB	07eH
	DB	05eH
	DB	00H
	DB	0ffH
	DB	079H
	DB	059H
	DB	00H
	DB	0ffH
	DB	078H
	DB	05bH
	DB	08H
	DB	0deH
	DB	085H
	DB	06dH
	DB	028H
	DB	094H
	DB	0bfH
	DB	0b3H
	DB	090H
	DB	047H
	DB	0ffH
	DB	0ffH
	DB	0ffH
	DB	01fH
	DB	0ffH
	DB	0ffH
	DB	0ffH
	DB	09H
	DB	00H
	DB	00H
	DB	00H
	DB	00H
	DB	00H
	DB	00H
	DB	00H
	DB	00H
	DB	00H
	DB	00H
	DB	00H
	DB	00H
	DB	00H
	DB	00H
	DB	00H
	DB	00H
	DB	00H
	DB	00H
	DB	00H
	DB	00H
	DB	00H
	DB	00H
	DB	00H
	DB	00H
	DB	00H
	DB	00H
	DB	00H
	DB	00H
	DB	00H
	DB	00H
	DB	00H
	DB	00H
	DB	00H
	DB	00H
	DB	00H
	DB	00H
	DB	00H
	DB	00H
	DB	00H
	DB	00H
	DB	00H
	DB	00H
	DB	00H
	DB	00H
	DB	00H
	DB	00H
	DB	00H
	DB	00H
	DB	00H
	DB	00H
	DB	00H
	DB	00H
	DB	00H
	DB	00H
	DB	00H
	DB	00H
	DB	00H
	DB	00H
	DB	00H
	DB	00H
	DB	00H
	DB	00H
	DB	00H
	DB	00H
	DB	00H
	DB	00H
	DB	00H
	DB	00H
	DB	00H
	DB	00H
	DB	00H
	DB	00H
	DB	00H
	DB	00H
	DB	00H
	DB	00H
	DB	00H
	DB	00H
	DB	00H
	DB	00H
	DB	00H
	DB	00H
	DB	00H
	DB	00H
	DB	00H
	DB	00H
	DB	00H
	DB	00H
	DB	00H
	DB	00H
	DB	00H
	DB	00H
	DB	00H
	DB	00H
	DB	00H
	DB	00H
	DB	00H
	DB	00H
	DB	00H
	DB	00H
	DB	00H
	DB	00H
	DB	00H
	DB	00H
	DB	00H
	DB	00H
	DB	00H
	DB	00H
	DB	00H
	DB	00H
	DB	00H
	DB	00H
	DB	00H
	DB	00H
	DB	00H
	DB	00H
	DB	00H
	DB	00H
	DB	00H
	DB	00H
	DB	00H
	DB	00H
	DB	00H
	DB	00H
	DB	00H
	DB	00H
	DB	00H
	DB	00H
	DB	00H
	DB	00H
	DB	00H
	DB	00H
	DB	00H
	DB	00H
	DB	00H
	DB	00H
	DB	00H
	DB	00H
	DB	00H
	DB	00H
	DB	00H
	DB	00H
	DB	00H
	DB	00H
	DB	00H
	DB	00H
	DB	00H
	DB	00H
	DB	00H
	DB	00H
	DB	00H
	DB	00H
	DB	0ffH
	DB	0ffH
	DB	0ffH
	DB	05H
	DB	0ffH
	DB	0ffH
	DB	0ffH
	DB	017H
	DB	0ffH
	DB	0ffH
	DB	0ffH
	DB	027H
	DB	0c1H
	DB	0b5H
	DB	093H
	DB	047H
	DB	090H
	DB	07aH
	DB	03cH
	DB	07cH
	DB	080H
	DB	067H
	DB	01dH
	DB	0a7H
	DB	07bH
	DB	05fH
	DB	0fH
	DB	0c6H
	DB	07aH
	DB	05bH
	DB	08H
	DB	0e1H
	DB	079H
	DB	05aH
	DB	03H
	DB	0f1H
	DB	07aH
	DB	059H
	DB	01H
	DB	0fbH
	DB	07aH
	DB	059H
	DB	01H
	DB	0fbH
	DB	079H
	DB	05aH
	DB	03H
	DB	0f1H
	DB	07aH
	DB	05bH
	DB	08H
	DB	0e1H
	DB	07bH
	DB	05fH
	DB	0fH
	DB	0c6H
	DB	080H
	DB	067H
	DB	01dH
	DB	0a7H
	DB	090H
	DB	07aH
	DB	03cH
	DB	07cH
	DB	0c1H
	DB	0b5H
	DB	093H
	DB	047H
	DB	0ffH
	DB	0ffH
	DB	0ffH
	DB	027H
	DB	0ffH
	DB	0ffH
	DB	0ffH
	DB	017H
	DB	0ffH
	DB	0ffH
	DB	0ffH
	DB	06H
	DB	00H
	DB	00H
	DB	00H
	DB	00H
	DB	00H
	DB	00H
	DB	00H
	DB	00H
	DB	00H
	DB	00H
	DB	00H
	DB	00H
	DB	00H
	DB	00H
	DB	00H
	DB	00H
	DB	00H
	DB	00H
	DB	00H
	DB	00H
	DB	00H
	DB	00H
	DB	00H
	DB	00H
	DB	00H
	DB	00H
	DB	00H
	DB	00H
	DB	00H
	DB	00H
	DB	00H
	DB	00H
	DB	00H
	DB	00H
	DB	00H
	DB	00H
	DB	00H
	DB	00H
	DB	00H
	DB	00H
	DB	00H
	DB	00H
	DB	00H
	DB	00H
	DB	00H
	DB	00H
	DB	00H
	DB	00H
	DB	00H
	DB	00H
	DB	00H
	DB	00H
	DB	00H
	DB	00H
	DB	00H
	DB	00H
	DB	00H
	DB	00H
	DB	00H
	DB	00H
	DB	00H
	DB	00H
	DB	00H
	DB	00H
	DB	00H
	DB	00H
	DB	00H
	DB	00H
	DB	00H
	DB	00H
	DB	00H
	DB	00H
	DB	00H
	DB	00H
	DB	00H
	DB	00H
	DB	00H
	DB	00H
	DB	00H
	DB	00H
	DB	00H
	DB	00H
	DB	00H
	DB	00H
	DB	00H
	DB	00H
	DB	00H
	DB	00H
	DB	00H
	DB	00H
	DB	00H
	DB	00H
	DB	00H
	DB	00H
	DB	00H
	DB	00H
	DB	00H
	DB	00H
	DB	00H
	DB	00H
	DB	00H
	DB	00H
	DB	00H
	DB	00H
	DB	00H
	DB	00H
	DB	00H
	DB	00H
	DB	00H
	DB	00H
	DB	00H
	DB	00H
	DB	00H
	DB	00H
	DB	00H
	DB	00H
	DB	00H
	DB	00H
	DB	00H
	DB	00H
	DB	00H
	DB	00H
	DB	00H
	DB	00H
	DB	00H
	DB	00H
	DB	00H
	DB	00H
	DB	00H
	DB	00H
	DB	00H
	DB	00H
	DB	00H
	DB	00H
	DB	00H
	DB	00H
	DB	00H
	DB	00H
	DB	00H
	DB	00H
	DB	00H
	DB	00H
	DB	00H
	DB	00H
	DB	00H
	DB	00H
	DB	00H
	DB	00H
	DB	00H
	DB	00H
	DB	00H
	DB	00H
	DB	00H
	DB	00H
	DB	00H
	DB	00H
	DB	00H
	DB	00H
	DB	00H
	DB	00H
	DB	00H
	DB	00H
	DB	00H
	DB	00H
	DB	00H
	DB	00H
	DB	00H
	DB	00H
	DB	00H
	DB	00H
	DB	00H
	DB	00H
	DB	0ffH
	DB	0ffH
	DB	0ffH
	DB	05H
	DB	0ffH
	DB	0ffH
	DB	0ffH
	DB	011H
	DB	0ffH
	DB	0ffH
	DB	0ffH
	DB	01bH
	DB	0ffH
	DB	0ffH
	DB	0ffH
	DB	022H
	DB	0ffH
	DB	0ffH
	DB	0ffH
	DB	027H
	DB	0ffH
	DB	0ffH
	DB	0ffH
	DB	02bH
	DB	0ffH
	DB	0ffH
	DB	0ffH
	DB	02dH
	DB	0ffH
	DB	0ffH
	DB	0ffH
	DB	02dH
	DB	0ffH
	DB	0ffH
	DB	0ffH
	DB	02bH
	DB	0ffH
	DB	0ffH
	DB	0ffH
	DB	027H
	DB	0ffH
	DB	0ffH
	DB	0ffH
	DB	022H
	DB	0ffH
	DB	0ffH
	DB	0ffH
	DB	01bH
	DB	0ffH
	DB	0ffH
	DB	0ffH
	DB	011H
	DB	0ffH
	DB	0ffH
	DB	0ffH
	DB	05H
	DB	00H
	DB	00H
	DB	00H
	DB	00H
	DB	00H
	DB	00H
	DB	00H
	DB	00H
	DB	00H
	DB	00H
	DB	00H
	DB	00H
	DB	00H
	DB	00H
	DB	00H
	DB	00H
	DB	00H
	DB	00H
	DB	00H
	DB	00H
	DB	00H
	DB	00H
	DB	00H
	DB	00H
	DB	00H
	DB	00H
	DB	00H
	DB	00H
	DB	00H
	DB	00H
	DB	00H
	DB	00H
	DB	00H
	DB	00H
	DB	00H
	DB	00H
	DB	00H
	DB	00H
	DB	00H
	DB	00H
	DB	00H
	DB	00H
	DB	00H
	DB	00H
	DB	00H
	DB	00H
	DB	00H
	DB	00H
	DB	00H
	DB	00H
	DB	00H
	DB	00H
	DB	00H
	DB	00H
	DB	00H
	DB	00H
	DB	00H
	DB	00H
	DB	00H
	DB	00H
	DB	00H
	DB	00H
	DB	00H
	DB	00H
	DB	00H
	DB	00H
	DB	00H
	DB	00H
	DB	00H
	DB	00H
	DB	00H
	DB	00H
	DB	00H
	DB	00H
	DB	00H
	DB	00H
	DB	00H
	DB	00H
	DB	00H
	DB	00H
	DB	00H
	DB	00H
	DB	00H
	DB	00H
	DB	00H
	DB	00H
	DB	00H
	DB	00H
	DB	00H
	DB	00H
	DB	00H
	DB	00H
	DB	00H
	DB	00H
	DB	00H
	DB	00H
	DB	00H
	DB	00H
	DB	00H
	DB	00H
	DB	00H
	DB	00H
	DB	00H
	DB	00H
	DB	00H
	DB	00H
	DB	00H
	DB	00H
	DB	00H
	DB	00H
	DB	00H
	DB	00H
	DB	00H
	DB	00H
	DB	00H
	DB	00H
	DB	00H
	DB	00H
	DB	00H
	DB	00H
	DB	00H
	DB	00H
	DB	00H
	DB	00H
	DB	00H
	DB	00H
	DB	00H
	DB	00H
	DB	00H
	DB	00H
	DB	00H
	DB	00H
	DB	00H
	DB	00H
	DB	00H
	DB	00H
	DB	00H
	DB	00H
	DB	00H
	DB	00H
	DB	00H
	DB	00H
	DB	00H
	DB	00H
	DB	00H
	DB	00H
	DB	00H
	DB	00H
	DB	00H
	DB	00H
	DB	00H
	DB	00H
	DB	00H
	DB	00H
	DB	00H
	DB	00H
	DB	00H
	DB	00H
	DB	00H
	DB	00H
	DB	00H
	DB	00H
	DB	00H
	DB	00H
	DB	00H
	DB	00H
	DB	00H
	DB	00H
	DB	00H
	DB	00H
	DB	00H
	DB	00H
	DB	00H
	DB	00H
	DB	00H
	DB	00H
	DB	00H
	DB	00H
	DB	00H
	DB	00H
	DB	00H
	DB	00H
	DB	00H
	DB	00H
	DB	00H
	DB	00H
	DB	00H
	DB	00H
	DB	00H
	DB	00H
	DB	00H
	DB	00H
	DB	00H
	DB	00H
	DB	00H
	DB	00H
	DB	00H
	DB	00H
	DB	00H
	DB	00H
	DB	00H
	DB	00H
	DB	00H
	DB	00H
	DB	00H
	DB	00H
	DB	00H
	DB	00H
	DB	00H
	DB	00H
	DB	00H
	DB	00H
	DB	00H
	DB	00H
	DB	00H
	DB	00H
	DB	00H
	DB	00H
	DB	00H
	DB	00H
	DB	00H
	DB	00H
	DB	00H
	DB	00H
	DB	00H
	DB	00H
	DB	00H
	DB	00H
	DB	00H
	DB	00H
	DB	00H
	DB	00H
	DB	00H
	DB	00H
	DB	00H
	DB	00H
	DB	00H
	DB	00H
	DB	00H
	DB	00H
	DB	00H
	DB	00H
	DB	00H
	DB	00H
	DB	00H
	DB	00H
	DB	00H
	DB	00H
	DB	00H
	DB	00H
	DB	00H
	DB	00H
	DB	00H
	DB	00H
	DB	00H
	DB	00H
	DB	00H
	DB	00H
	DB	00H
	DB	00H
	DB	00H
	DB	00H
	DB	00H
	DB	00H
	DB	00H
	DB	00H
	DB	00H
	DB	00H
	DB	00H
	DB	00H
	DB	00H
	DB	00H
	DB	00H
	DB	00H
	DB	00H
	DB	00H
	DB	00H
	DB	00H
	DB	00H
	DB	00H
	DB	00H
	DB	00H
	DB	00H
	DB	00H
	DB	00H
	DB	00H
	DB	00H
	DB	00H
	DB	00H
	DB	00H
	DB	00H
	DB	00H
	DB	00H
	DB	00H
	DB	00H
	DB	00H
	DB	00H
	DB	00H
	DB	00H
	DB	00H
	DB	00H
	DB	00H
	DB	00H
	DB	00H
	DB	00H
	DB	00H
	DB	00H
	DB	00H
	DB	00H
	DB	00H
	DB	00H
	DB	00H
	DB	00H
	DB	00H
	DB	00H
	DB	00H
	DB	00H
	DB	00H
	DB	00H
	DB	00H
	DB	00H
	DB	00H
	DB	00H
	DB	00H
	DB	00H
	DB	00H
	DB	00H
	DB	00H
	DB	00H
	DB	00H
	DB	00H
	DB	00H
	DB	00H
	DB	00H
	DB	00H
	DB	00H
	DB	00H
	DB	00H
	DB	00H
	DB	00H
	DB	00H
	DB	00H
	DB	00H
	DB	00H
	DB	00H
	DB	00H
	DB	00H
	DB	00H
	DB	00H
	DB	00H
	DB	00H
	DB	00H
	DB	00H
	DB	00H
	DB	00H
	DB	00H
	DB	00H
	DB	00H
	DB	00H
	DB	00H
	DB	00H
	DB	00H
	DB	00H
	DB	00H
	DB	00H
	DB	00H
	DB	00H
	DB	00H
	DB	00H
	DB	00H
	DB	00H
	DB	00H
	DB	00H
	DB	00H
	DB	00H
	DB	00H
	DB	00H
	DB	00H
	DB	00H
	DB	00H
	DB	00H
	DB	00H
	DB	00H
	DB	00H
	DB	00H
	DB	00H
	DB	00H
	DB	00H
	DB	00H
	DB	00H
	DB	00H
	DB	00H
	DB	00H
	DB	00H
	DB	00H
	DB	00H
	DB	00H
	DB	00H
	DB	00H
	DB	00H
	DB	00H
	DB	00H
	DB	00H
	DB	00H
	DB	00H
	DB	00H
	DB	00H
	DB	00H
	DB	00H
	DB	00H
	DB	00H
	DB	00H
	DB	00H
	DB	00H
	DB	00H
	DB	00H
	DB	00H
	DB	00H
	DB	00H
	DB	00H
	DB	00H
	DB	00H
	DB	00H
	DB	00H
	DB	00H
	DB	00H
	DB	00H
	DB	00H
	DB	00H
	DB	00H
	DB	00H
	DB	00H
	DB	00H
	DB	00H
	DB	00H
	DB	00H
	DB	00H
	DB	00H
	DB	00H
	DB	00H
	DB	00H
	DB	00H
	DB	00H
	DB	00H
	DB	00H
	DB	00H
	DB	00H
	DB	00H
	DB	00H
	DB	00H
	DB	00H
	DB	00H
	DB	00H
	DB	00H
	DB	00H
	DB	00H
	DB	00H
	DB	00H
	DB	00H
	DB	00H
	DB	00H
	DB	00H
	DB	00H
	DB	00H
	DB	00H
	DB	00H
	DB	00H
	DB	00H
	DB	00H
	DB	00H
	DB	00H
	DB	00H
	DB	00H
	DB	00H
	DB	00H
	DB	00H
	DB	00H
	DB	00H
	DB	00H
	DB	00H
	DB	00H
	DB	00H
	DB	00H
	DB	00H
	DB	00H
	DB	00H
	DB	00H
	DB	00H
	DB	00H
	DB	00H
	DB	00H
	DB	00H
	DB	00H
	DB	00H
	DB	00H
	DB	00H
	DB	00H
	DB	00H
	DB	00H
	DB	00H
	DB	00H
	DB	00H
	DB	00H
	DB	00H
	DB	00H
	DB	00H
	DB	00H
	DB	00H
	DB	00H
	DB	00H
	DB	00H
	DB	00H
	DB	00H
	DB	00H
	DB	00H
	DB	00H
	DB	00H
	DB	00H
	DB	00H
	DB	00H
	DB	00H
	DB	00H
	DB	00H
	DB	00H
	DB	00H
	DB	00H
	DB	00H
	DB	00H
	DB	00H
	DB	00H
	DB	00H
	DB	00H
	DB	00H
	DB	00H
	DB	00H
	DB	00H
	DB	00H
	DB	00H
	DB	00H
	DB	00H
	DB	00H
	DB	00H
	DB	00H
	DB	00H
	DB	00H
	DB	00H
	DB	00H
	DB	00H
	DB	00H
	DB	00H
	DB	00H
	DB	00H
	DB	00H
	DB	00H
	DB	00H
	DB	00H
	DB	00H
	DB	00H
	DB	00H
	DB	00H
	DB	00H
	DB	00H
	DB	00H
	DB	00H
	DB	00H
	DB	00H
	DB	00H
	DB	00H
	DB	00H
	DB	00H
	DB	00H
	DB	00H
	DB	00H
	DB	00H
	DB	00H
	DB	00H
	DB	00H
	DB	00H
	DB	00H
	DB	00H
	DB	00H
	DB	00H
	DB	00H
	DB	00H
	DB	00H
	DB	00H
	DB	00H
	DB	00H
	DB	00H
	DB	00H
	DB	00H
	DB	00H
	DB	00H
	DB	00H
	DB	00H
	DB	00H
	DB	00H
	DB	00H
	DB	00H
	DB	00H
	DB	00H
	DB	00H
	DB	00H
	DB	00H
	DB	00H
	DB	00H
	DB	00H
	DB	00H
	DB	00H
	DB	00H
	DB	00H
	DB	00H
	DB	00H
	DB	00H
	DB	00H
	DB	00H
	DB	00H
	DB	00H
	DB	00H
	DB	00H
	DB	00H
	DB	00H
	DB	00H
	DB	00H
	DB	00H
	DB	00H
	DB	00H
	DB	00H
	DB	00H
	DB	00H
	DB	00H
	DB	00H
	DB	00H
	DB	00H
	DB	00H
	DB	00H
	DB	00H
	DB	00H
	DB	00H
	DB	00H
	DB	00H
	DB	00H
	DB	00H
	DB	00H
	DB	00H
	DB	00H
	DB	00H
	DB	00H
	DB	00H
	DB	00H
	DB	00H
	DB	00H
	DB	00H
	DB	00H
	DB	00H
	DB	00H
	DB	00H
	DB	00H
	DB	00H
	DB	00H
	DB	00H
	DB	00H
	DB	00H
	DB	00H
	DB	00H
	DB	00H
	DB	00H
	DB	00H
	DB	00H
	DB	00H
	DB	00H
	DB	00H
	DB	00H
	DB	00H
	DB	00H
	DB	00H
	DB	00H
	DB	00H
	DB	00H
	DB	00H
	DB	00H
	DB	00H
	DB	00H
	DB	00H
	DB	00H
	DB	00H
	DB	00H
	DB	00H
	DB	00H
	DB	00H
	DB	00H
	DB	00H
	DB	00H
	DB	00H
	DB	00H
	DB	00H
	DB	00H
	DB	00H
	DB	00H
	DB	00H
	DB	00H
	DB	00H
	DB	00H
	DB	00H
	DB	00H
	DB	00H
	DB	00H
	DB	00H
	DB	00H
	DB	00H
	DB	00H
	DB	00H
	DB	00H
	DB	00H
	DB	00H
	DB	00H
	DB	00H
	DB	00H
	DB	00H
	DB	00H
	DB	00H
	DB	00H
	DB	00H
	DB	00H
	DB	00H
	DB	00H
	DB	00H
	DB	00H
	DB	00H
	DB	00H
	DB	00H
	DB	00H
	DB	00H
	DB	00H
	DB	00H
	DB	00H
	DB	00H
	DB	00H
	DB	00H
	DB	00H
	DB	00H
	DB	00H
	DB	00H
	DB	00H
	DB	00H
	DB	00H
	DB	00H
	DB	00H
	DB	00H
	DB	00H
	DB	00H
	DB	00H
	DB	00H
	DB	00H
	DB	00H
	DB	00H
	DB	00H
	DB	00H
	DB	00H
	DB	00H
	DB	00H
	DB	00H
	DB	00H
	DB	00H
	DB	00H
	DB	00H
	DB	00H
	DB	00H
	DB	00H
	DB	00H
	DB	00H
	DB	00H
	DB	00H
	DB	00H
	DB	00H
	DB	00H
	DB	00H
	DB	00H
	DB	00H
	DB	00H
	DB	00H
	DB	00H
	DB	00H
	DB	00H
	DB	00H
	DB	00H
	DB	00H
	DB	00H
	DB	00H
	DB	00H
	DB	00H
	DB	00H
	DB	00H
	DB	00H
	DB	00H
	DB	00H
	DB	00H
	DB	00H
	DB	00H
	DB	00H
	DB	00H
	DB	00H
	DB	00H
	DB	00H
	DB	00H
	DB	00H
	DB	00H
	DB	00H
	DB	00H
	DB	00H
	DB	00H
	DB	00H
	DB	00H
	DB	00H
	DB	00H
	DB	00H
	DB	00H
	DB	00H
	DB	00H
	DB	00H
	DB	00H
	DB	00H
	DB	00H
	DB	00H
	DB	00H
	DB	00H
	DB	00H
	DB	00H
	DB	00H
	DB	00H
	DB	00H
	DB	00H
	DB	00H
	DB	00H
	DB	00H
	DB	00H
	DB	00H
	DB	00H
	DB	00H
	DB	00H
	DB	00H
	DB	00H
	DB	00H
	DB	00H
	DB	00H
	DB	00H
	DB	00H
	DB	00H
	DB	00H
	DB	00H
	DB	00H
	DB	00H
	DB	00H
	DB	00H
	DB	00H
	DB	00H
	DB	00H
	DB	00H
	DB	00H
	DB	00H
	DB	00H
	DB	00H
	DB	00H
	DB	00H
	DB	00H
	DB	00H
	DB	00H
	DB	00H
	DB	00H
	DB	00H
	DB	00H
	DB	00H
	DB	00H
	DB	00H
	DB	00H
	DB	00H
	DB	00H
	DB	00H
	DB	00H
	DB	00H
	DB	00H
	DB	00H
	DB	00H
	DB	00H
	DB	00H
	DB	00H
	DB	00H
	DB	00H
	DB	00H
	DB	00H
	DB	00H
	DB	00H
	DB	00H
	DB	00H
	DB	00H
	DB	00H
	DB	00H
	DB	00H
	DB	00H
	DB	00H
	DB	00H
	DB	00H
	DB	00H
	DB	00H
	DB	00H
	DB	00H
	DB	00H
	DB	00H
	DB	00H
	DB	00H
	DB	00H
	DB	00H
	DB	00H
	DB	00H
	DB	00H
	DB	00H
	DB	00H
	DB	00H
	DB	00H
	DB	00H
	DB	00H
	DB	00H
	DB	00H
	DB	00H
	DB	00H
	DB	00H
	DB	00H
	DB	00H
	DB	00H
	DB	00H
	DB	00H
	DB	00H
	DB	00H
	DB	00H
	DB	00H
	DB	00H
	DB	00H
	DB	00H
	DB	00H
	DB	00H
	DB	00H
	DB	00H
	DB	00H
	DB	00H
	DB	00H
	DB	00H
	DB	00H
	DB	00H
	DB	00H
	DB	00H
	DB	00H
	DB	00H
	DB	00H
	DB	00H
	DB	00H
	DB	00H
	DB	00H
	DB	00H
	DB	00H
	DB	00H
	DB	00H
	DB	00H
	DB	00H
	DB	00H
	DB	00H
	DB	00H
	DB	00H
	DB	00H
	DB	00H
	DB	00H
	DB	00H
	DB	00H
	DB	00H
	DB	00H
	DB	00H
	DB	00H
	DB	00H
	DB	00H
	DB	00H
	DB	00H
	DB	00H
	DB	00H
	DB	00H
	DB	00H
	DB	00H
	DB	00H
	DB	00H
	DB	00H
	DB	00H
	DB	00H
	DB	00H
	DB	00H
	DB	00H
	DB	00H
	DB	00H
	DB	00H
	DB	00H
	DB	00H
	DB	00H
	DB	00H
	DB	00H
	DB	00H
	DB	00H
	DB	00H
	DB	00H
	DB	00H
	DB	00H
	DB	00H
	DB	00H
	DB	00H
	DB	00H
	DB	00H
	DB	00H
	DB	00H
	DB	00H
	DB	00H
	DB	00H
	DB	00H
	DB	00H
	DB	00H
	DB	00H
	DB	00H
	DB	00H
	DB	00H
	DB	00H
	DB	00H
	DB	00H
	DB	00H
	DB	00H
	DB	00H
	DB	00H
	DB	00H
	DB	00H
	DB	00H
	DB	00H
	DB	00H
	DB	00H
	DB	00H
	DB	00H
	DB	00H
	DB	00H
	DB	00H
	DB	00H
	DB	00H
	DB	00H
	DB	00H
	DB	00H
	DB	00H
	DB	00H
	DB	00H
	DB	00H
	DB	00H
	DB	00H
	DB	00H
	DB	00H
	DB	00H
	DB	00H
	DB	00H
	DB	00H
	DB	00H
	DB	00H
	DB	00H
	DB	00H
	DB	00H
	DB	00H
	DB	00H
	DB	00H
	DB	00H
	DB	00H
	DB	00H
	DB	00H
	DB	00H
	DB	00H
	DB	00H
	DB	00H
	DB	00H
	DB	00H
	DB	00H
	DB	00H
	DB	00H
	DB	00H
	DB	00H
	DB	00H
	DB	00H
	DB	00H
	DB	00H
	DB	00H
	DB	00H
	DB	00H
	DB	00H
	DB	00H
	DB	00H
	DB	00H
	DB	00H
	DB	00H
	DB	00H
	DB	00H
	DB	00H
	DB	00H
	DB	00H
	DB	00H
	DB	00H
	DB	00H
	DB	00H
	DB	00H
	DB	00H
	DB	00H
	DB	00H
	DB	00H
	DB	00H
	DB	00H
	DB	00H
	DB	00H
	DB	00H
	DB	00H
	DB	00H
	DB	00H
	DB	00H
	DB	00H
	DB	00H
	DB	00H
	DB	00H
	DB	00H
	DB	00H
	DB	00H
	DB	00H
	DB	00H
	DB	00H
	DB	00H
	DB	00H
	DB	00H
	DB	00H
	DB	00H
	DB	00H
	DB	00H
	DB	00H
	DB	00H
	DB	00H
	DB	00H
	DB	00H
	DB	00H
	DB	00H
	DB	00H
	DB	00H
	DB	00H
	DB	00H
	DB	00H
	DB	00H
	DB	00H
	DB	00H
	DB	00H
	DB	00H
	DB	00H
	DB	00H
	DB	00H
	DB	00H
	DB	00H
	DB	00H
	DB	00H
	DB	00H
	DB	00H
	DB	00H
	DB	00H
	DB	00H
	DB	00H
	DB	00H
	DB	00H
	DB	00H
	DB	00H
	DB	00H
	DB	00H
	DB	00H
	DB	00H
	DB	00H
	DB	00H
	DB	00H
	DB	00H
	DB	00H
	DB	00H
	DB	00H
	DB	00H
	DB	00H
	DB	00H
	DB	00H
	DB	00H
	DB	00H
	DB	00H
	DB	00H
	DB	00H
	DB	00H
	DB	00H
	DB	00H
	DB	00H
	DB	00H
	DB	00H
	DB	00H
	DB	00H
	DB	00H
	DB	00H
	DB	00H
	DB	00H
	DB	00H
	DB	00H
	DB	00H
	DB	00H
	DB	00H
	DB	00H
	DB	00H
	DB	00H
	DB	00H
	DB	00H
	DB	00H
	DB	00H
	DB	00H
	DB	00H
	DB	00H
	DB	00H
	DB	00H
	DB	00H
	DB	00H
	DB	00H
	DB	00H
	DB	00H
	DB	00H
	DB	00H
	DB	00H
	DB	00H
	DB	00H
	DB	00H
	DB	00H
	DB	00H
	DB	00H
	DB	00H
	DB	00H
	DB	00H
	DB	00H
	DB	00H
	DB	00H
	DB	00H
	DB	00H
	DB	00H
	DB	00H
	DB	00H
	DB	00H
	DB	00H
	DB	00H
	DB	00H
	DB	00H
	DB	00H
	DB	00H
	DB	00H
	DB	00H
	DB	00H
	DB	00H
	DB	00H
	DB	00H
	DB	00H
	DB	00H
	DB	00H
	DB	00H
	DB	00H
	DB	00H
	DB	00H
	DB	00H
	DB	00H
	DB	00H
	DB	00H
	DB	00H
	DB	00H
	DB	00H
	DB	00H
	DB	00H
	DB	00H
	DB	00H
	DB	00H
	DB	00H
	DB	00H
	DB	00H
	DB	00H
	DB	00H
	DB	00H
	DB	00H
	DB	00H
	DB	00H
	DB	00H
	DB	00H
	DB	00H
	DB	00H
	DB	00H
	DB	00H
	DB	00H
	DB	00H
CONST	ENDS
END
