; Listing generated by Microsoft (R) Optimizing Compiler Version 19.25.28614.0 

	TITLE	E:\skull\TouchGFX\Projects\iioss\stm32f429_touchgfx_iios\Src\generated\images\src\__designer\Blue_Clocks_Hands_clock_standard_minute_hand.cpp
	.686P
	.XMM
	include listing.inc
	.model	flat

INCLUDELIB MSVCRTD
INCLUDELIB OLDNAMES

PUBLIC	?_blue_clocks_hands_clock_standard_minute_hand@@3QBEB ; _blue_clocks_hands_clock_standard_minute_hand
CONST	SEGMENT
?_blue_clocks_hands_clock_standard_minute_hand@@3QBEB DB 0ffH ; _blue_clocks_hands_clock_standard_minute_hand
	DB	0ffH
	DB	0ffH
	DB	00H
	DB	0ffH
	DB	0ffH
	DB	0ffH
	DB	00H
	DB	0ffH
	DB	0ffH
	DB	0ffH
	DB	00H
	DB	0ffH
	DB	0ffH
	DB	0ffH
	DB	00H
	DB	0ffH
	DB	0ffH
	DB	0ffH
	DB	00H
	DB	0ffH
	DB	0ffH
	DB	0ffH
	DB	00H
	DB	0ffH
	DB	0ffH
	DB	0ffH
	DB	00H
	DB	0ffH
	DB	0ffH
	DB	0ffH
	DB	00H
	DB	0ffH
	DB	0ffH
	DB	0ffH
	DB	00H
	DB	0ffH
	DB	0ffH
	DB	0ffH
	DB	00H
	DB	0ffH
	DB	0ffH
	DB	0ffH
	DB	00H
	DB	0ffH
	DB	0ffH
	DB	0ffH
	DB	00H
	DB	0ffH
	DB	0ffH
	DB	0ffH
	DB	00H
	DB	0ffH
	DB	0ffH
	DB	0ffH
	DB	00H
	DB	0ffH
	DB	0ffH
	DB	0ffH
	DB	00H
	DB	00H
	DB	00H
	DB	00H
	DB	00H
	DB	00H
	DB	00H
	DB	00H
	DB	00H
	DB	00H
	DB	00H
	DB	00H
	DB	00H
	DB	00H
	DB	00H
	DB	00H
	DB	01H
	DB	046H
	DB	043H
	DB	03bH
	DB	0cH
	DB	053H
	DB	04fH
	DB	046H
	DB	07dH
	DB	054H
	DB	050H
	DB	047H
	DB	0cfH
	DB	054H
	DB	050H
	DB	047H
	DB	0edH
	DB	054H
	DB	050H
	DB	047H
	DB	0cfH
	DB	053H
	DB	04fH
	DB	046H
	DB	07dH
	DB	046H
	DB	043H
	DB	03bH
	DB	0cH
	DB	00H
	DB	00H
	DB	00H
	DB	01H
	DB	00H
	DB	00H
	DB	00H
	DB	00H
	DB	00H
	DB	00H
	DB	00H
	DB	00H
	DB	00H
	DB	00H
	DB	00H
	DB	00H
	DB	00H
	DB	00H
	DB	00H
	DB	00H
	DB	00H
	DB	00H
	DB	00H
	DB	00H
	DB	00H
	DB	00H
	DB	00H
	DB	01H
	DB	046H
	DB	043H
	DB	03bH
	DB	012H
	DB	052H
	DB	04eH
	DB	046H
	DB	0cfH
	DB	042H
	DB	03dH
	DB	034H
	DB	0ffH
	DB	035H
	DB	031H
	DB	027H
	DB	0ffH
	DB	030H
	DB	02cH
	DB	022H
	DB	0ffH
	DB	035H
	DB	031H
	DB	027H
	DB	0ffH
	DB	042H
	DB	03dH
	DB	034H
	DB	0ffH
	DB	052H
	DB	04eH
	DB	046H
	DB	0cfH
	DB	045H
	DB	042H
	DB	03aH
	DB	011H
	DB	00H
	DB	00H
	DB	00H
	DB	01H
	DB	00H
	DB	00H
	DB	00H
	DB	00H
	DB	00H
	DB	00H
	DB	00H
	DB	00H
	DB	00H
	DB	00H
	DB	00H
	DB	00H
	DB	00H
	DB	00H
	DB	00H
	DB	01H
	DB	00H
	DB	00H
	DB	00H
	DB	03H
	DB	04fH
	DB	04bH
	DB	043H
	DB	094H
	DB	035H
	DB	031H
	DB	027H
	DB	0ffH
	DB	02eH
	DB	029H
	DB	01fH
	DB	0ffH
	DB	030H
	DB	02cH
	DB	022H
	DB	0ffH
	DB	043H
	DB	03fH
	DB	036H
	DB	0ffH
	DB	02eH
	DB	029H
	DB	01fH
	DB	0ffH
	DB	02eH
	DB	029H
	DB	01fH
	DB	0ffH
	DB	035H
	DB	031H
	DB	027H
	DB	0ffH
	DB	04fH
	DB	04bH
	DB	043H
	DB	090H
	DB	00H
	DB	00H
	DB	00H
	DB	03H
	DB	00H
	DB	00H
	DB	00H
	DB	01H
	DB	00H
	DB	00H
	DB	00H
	DB	00H
	DB	00H
	DB	00H
	DB	00H
	DB	00H
	DB	00H
	DB	00H
	DB	00H
	DB	02H
	DB	00H
	DB	00H
	DB	00H
	DB	08H
	DB	03eH
	DB	03aH
	DB	031H
	DB	0e5H
	DB	02eH
	DB	029H
	DB	01fH
	DB	0ffH
	DB	062H
	DB	05fH
	DB	057H
	DB	0ffH
	DB	0e6H
	DB	0e6H
	DB	0e5H
	DB	0ffH
	DB	0ffH
	DB	0ffH
	DB	0ffH
	DB	0ffH
	DB	0e3H
	DB	0e2H
	DB	0e1H
	DB	0ffH
	DB	058H
	DB	054H
	DB	04cH
	DB	0ffH
	DB	02eH
	DB	029H
	DB	01fH
	DB	0ffH
	DB	03fH
	DB	03bH
	DB	031H
	DB	0e4H
	DB	00H
	DB	00H
	DB	00H
	DB	08H
	DB	00H
	DB	00H
	DB	00H
	DB	02H
	DB	00H
	DB	00H
	DB	00H
	DB	00H
	DB	00H
	DB	00H
	DB	00H
	DB	00H
	DB	00H
	DB	00H
	DB	00H
	DB	04H
	DB	00H
	DB	00H
	DB	00H
	DB	0dH
	DB	032H
	DB	02dH
	DB	023H
	DB	0feH
	DB	02eH
	DB	029H
	DB	01fH
	DB	0ffH
	DB	0e5H
	DB	0e4H
	DB	0e3H
	DB	0ffH
	DB	0ffH
	DB	0ffH
	DB	0ffH
	DB	0ffH
	DB	0ffH
	DB	0ffH
	DB	0ffH
	DB	0ffH
	DB	0ffH
	DB	0ffH
	DB	0ffH
	DB	0ffH
	DB	0d8H
	DB	0d8H
	DB	0d6H
	DB	0ffH
	DB	02eH
	DB	029H
	DB	01fH
	DB	0ffH
	DB	032H
	DB	02dH
	DB	023H
	DB	0fdH
	DB	00H
	DB	00H
	DB	00H
	DB	0dH
	DB	00H
	DB	00H
	DB	00H
	DB	04H
	DB	00H
	DB	00H
	DB	00H
	DB	00H
	DB	00H
	DB	00H
	DB	00H
	DB	00H
	DB	00H
	DB	00H
	DB	00H
	DB	06H
	DB	00H
	DB	00H
	DB	00H
	DB	012H
	DB	02eH
	DB	029H
	DB	01fH
	DB	0ffH
	DB	02eH
	DB	029H
	DB	01fH
	DB	0ffH
	DB	0ffH
	DB	0ffH
	DB	0ffH
	DB	0ffH
	DB	0ffH
	DB	0ffH
	DB	0ffH
	DB	0ffH
	DB	0ffH
	DB	0ffH
	DB	0ffH
	DB	0ffH
	DB	0ffH
	DB	0ffH
	DB	0ffH
	DB	0ffH
	DB	0fdH
	DB	0fcH
	DB	0fcH
	DB	0ffH
	DB	02eH
	DB	029H
	DB	01fH
	DB	0ffH
	DB	02eH
	DB	029H
	DB	01fH
	DB	0ffH
	DB	00H
	DB	00H
	DB	00H
	DB	012H
	DB	00H
	DB	00H
	DB	00H
	DB	05H
	DB	00H
	DB	00H
	DB	00H
	DB	00H
	DB	00H
	DB	00H
	DB	00H
	DB	00H
	DB	00H
	DB	00H
	DB	00H
	DB	07H
	DB	00H
	DB	00H
	DB	00H
	DB	014H
	DB	02eH
	DB	029H
	DB	01fH
	DB	0ffH
	DB	02eH
	DB	029H
	DB	01fH
	DB	0ffH
	DB	0ffH
	DB	0ffH
	DB	0ffH
	DB	0ffH
	DB	0ffH
	DB	0ffH
	DB	0ffH
	DB	0ffH
	DB	0ffH
	DB	0ffH
	DB	0ffH
	DB	0ffH
	DB	0ffH
	DB	0ffH
	DB	0ffH
	DB	0ffH
	DB	0ffH
	DB	0ffH
	DB	0ffH
	DB	0ffH
	DB	02eH
	DB	029H
	DB	01fH
	DB	0ffH
	DB	02eH
	DB	029H
	DB	01fH
	DB	0ffH
	DB	00H
	DB	00H
	DB	00H
	DB	014H
	DB	00H
	DB	00H
	DB	00H
	DB	07H
	DB	00H
	DB	00H
	DB	00H
	DB	00H
	DB	00H
	DB	00H
	DB	00H
	DB	00H
	DB	00H
	DB	00H
	DB	00H
	DB	07H
	DB	00H
	DB	00H
	DB	00H
	DB	015H
	DB	02eH
	DB	029H
	DB	01fH
	DB	0ffH
	DB	02eH
	DB	029H
	DB	01fH
	DB	0ffH
	DB	0ffH
	DB	0ffH
	DB	0ffH
	DB	0ffH
	DB	0ffH
	DB	0ffH
	DB	0ffH
	DB	0ffH
	DB	0ffH
	DB	0ffH
	DB	0ffH
	DB	0ffH
	DB	0ffH
	DB	0ffH
	DB	0ffH
	DB	0ffH
	DB	0ffH
	DB	0ffH
	DB	0ffH
	DB	0ffH
	DB	02eH
	DB	029H
	DB	01fH
	DB	0ffH
	DB	02eH
	DB	029H
	DB	01fH
	DB	0ffH
	DB	00H
	DB	00H
	DB	00H
	DB	015H
	DB	00H
	DB	00H
	DB	00H
	DB	07H
	DB	00H
	DB	00H
	DB	00H
	DB	00H
	DB	00H
	DB	00H
	DB	00H
	DB	00H
	DB	00H
	DB	00H
	DB	00H
	DB	07H
	DB	00H
	DB	00H
	DB	00H
	DB	015H
	DB	02eH
	DB	029H
	DB	01fH
	DB	0ffH
	DB	02eH
	DB	029H
	DB	01fH
	DB	0ffH
	DB	0ffH
	DB	0ffH
	DB	0ffH
	DB	0ffH
	DB	0ffH
	DB	0ffH
	DB	0ffH
	DB	0ffH
	DB	0ffH
	DB	0ffH
	DB	0ffH
	DB	0ffH
	DB	0ffH
	DB	0ffH
	DB	0ffH
	DB	0ffH
	DB	0ffH
	DB	0ffH
	DB	0ffH
	DB	0ffH
	DB	02eH
	DB	029H
	DB	01fH
	DB	0ffH
	DB	02eH
	DB	029H
	DB	01fH
	DB	0ffH
	DB	00H
	DB	00H
	DB	00H
	DB	015H
	DB	00H
	DB	00H
	DB	00H
	DB	07H
	DB	00H
	DB	00H
	DB	00H
	DB	00H
	DB	00H
	DB	00H
	DB	00H
	DB	00H
	DB	00H
	DB	00H
	DB	00H
	DB	07H
	DB	00H
	DB	00H
	DB	00H
	DB	015H
	DB	02eH
	DB	029H
	DB	01fH
	DB	0ffH
	DB	02eH
	DB	029H
	DB	01fH
	DB	0ffH
	DB	0ffH
	DB	0ffH
	DB	0ffH
	DB	0ffH
	DB	0ffH
	DB	0ffH
	DB	0ffH
	DB	0ffH
	DB	0ffH
	DB	0ffH
	DB	0ffH
	DB	0ffH
	DB	0ffH
	DB	0ffH
	DB	0ffH
	DB	0ffH
	DB	0ffH
	DB	0ffH
	DB	0ffH
	DB	0ffH
	DB	02eH
	DB	029H
	DB	01fH
	DB	0ffH
	DB	02eH
	DB	029H
	DB	01fH
	DB	0ffH
	DB	00H
	DB	00H
	DB	00H
	DB	015H
	DB	00H
	DB	00H
	DB	00H
	DB	07H
	DB	00H
	DB	00H
	DB	00H
	DB	00H
	DB	00H
	DB	00H
	DB	00H
	DB	00H
	DB	00H
	DB	00H
	DB	00H
	DB	07H
	DB	00H
	DB	00H
	DB	00H
	DB	015H
	DB	02eH
	DB	029H
	DB	01fH
	DB	0ffH
	DB	02eH
	DB	029H
	DB	01fH
	DB	0ffH
	DB	0ffH
	DB	0ffH
	DB	0ffH
	DB	0ffH
	DB	0ffH
	DB	0ffH
	DB	0ffH
	DB	0ffH
	DB	0ffH
	DB	0ffH
	DB	0ffH
	DB	0ffH
	DB	0ffH
	DB	0ffH
	DB	0ffH
	DB	0ffH
	DB	0ffH
	DB	0ffH
	DB	0ffH
	DB	0ffH
	DB	02eH
	DB	029H
	DB	01fH
	DB	0ffH
	DB	02eH
	DB	029H
	DB	01fH
	DB	0ffH
	DB	00H
	DB	00H
	DB	00H
	DB	015H
	DB	00H
	DB	00H
	DB	00H
	DB	07H
	DB	00H
	DB	00H
	DB	00H
	DB	00H
	DB	00H
	DB	00H
	DB	00H
	DB	00H
	DB	00H
	DB	00H
	DB	00H
	DB	07H
	DB	00H
	DB	00H
	DB	00H
	DB	015H
	DB	02eH
	DB	029H
	DB	01fH
	DB	0ffH
	DB	02eH
	DB	029H
	DB	01fH
	DB	0ffH
	DB	0ffH
	DB	0ffH
	DB	0ffH
	DB	0ffH
	DB	0ffH
	DB	0ffH
	DB	0ffH
	DB	0ffH
	DB	0ffH
	DB	0ffH
	DB	0ffH
	DB	0ffH
	DB	0ffH
	DB	0ffH
	DB	0ffH
	DB	0ffH
	DB	0ffH
	DB	0ffH
	DB	0ffH
	DB	0ffH
	DB	02eH
	DB	029H
	DB	01fH
	DB	0ffH
	DB	02eH
	DB	029H
	DB	01fH
	DB	0ffH
	DB	00H
	DB	00H
	DB	00H
	DB	015H
	DB	00H
	DB	00H
	DB	00H
	DB	07H
	DB	00H
	DB	00H
	DB	00H
	DB	00H
	DB	00H
	DB	00H
	DB	00H
	DB	00H
	DB	00H
	DB	00H
	DB	00H
	DB	07H
	DB	00H
	DB	00H
	DB	00H
	DB	015H
	DB	02eH
	DB	029H
	DB	01fH
	DB	0ffH
	DB	02eH
	DB	029H
	DB	01fH
	DB	0ffH
	DB	0ffH
	DB	0ffH
	DB	0ffH
	DB	0ffH
	DB	0ffH
	DB	0ffH
	DB	0ffH
	DB	0ffH
	DB	0ffH
	DB	0ffH
	DB	0ffH
	DB	0ffH
	DB	0ffH
	DB	0ffH
	DB	0ffH
	DB	0ffH
	DB	0ffH
	DB	0ffH
	DB	0ffH
	DB	0ffH
	DB	02eH
	DB	029H
	DB	01fH
	DB	0ffH
	DB	02eH
	DB	029H
	DB	01fH
	DB	0ffH
	DB	00H
	DB	00H
	DB	00H
	DB	015H
	DB	00H
	DB	00H
	DB	00H
	DB	07H
	DB	00H
	DB	00H
	DB	00H
	DB	00H
	DB	00H
	DB	00H
	DB	00H
	DB	00H
	DB	00H
	DB	00H
	DB	00H
	DB	07H
	DB	00H
	DB	00H
	DB	00H
	DB	015H
	DB	02eH
	DB	029H
	DB	01fH
	DB	0ffH
	DB	02eH
	DB	029H
	DB	01fH
	DB	0ffH
	DB	0ffH
	DB	0ffH
	DB	0ffH
	DB	0ffH
	DB	0ffH
	DB	0ffH
	DB	0ffH
	DB	0ffH
	DB	0ffH
	DB	0ffH
	DB	0ffH
	DB	0ffH
	DB	0ffH
	DB	0ffH
	DB	0ffH
	DB	0ffH
	DB	0ffH
	DB	0ffH
	DB	0ffH
	DB	0ffH
	DB	02eH
	DB	029H
	DB	01fH
	DB	0ffH
	DB	02eH
	DB	029H
	DB	01fH
	DB	0ffH
	DB	00H
	DB	00H
	DB	00H
	DB	015H
	DB	00H
	DB	00H
	DB	00H
	DB	07H
	DB	00H
	DB	00H
	DB	00H
	DB	00H
	DB	00H
	DB	00H
	DB	00H
	DB	00H
	DB	00H
	DB	00H
	DB	00H
	DB	07H
	DB	00H
	DB	00H
	DB	00H
	DB	015H
	DB	02eH
	DB	029H
	DB	01fH
	DB	0ffH
	DB	02eH
	DB	029H
	DB	01fH
	DB	0ffH
	DB	0ffH
	DB	0ffH
	DB	0ffH
	DB	0ffH
	DB	0ffH
	DB	0ffH
	DB	0ffH
	DB	0ffH
	DB	0ffH
	DB	0ffH
	DB	0ffH
	DB	0ffH
	DB	0ffH
	DB	0ffH
	DB	0ffH
	DB	0ffH
	DB	0ffH
	DB	0ffH
	DB	0ffH
	DB	0ffH
	DB	02eH
	DB	029H
	DB	01fH
	DB	0ffH
	DB	02eH
	DB	029H
	DB	01fH
	DB	0ffH
	DB	00H
	DB	00H
	DB	00H
	DB	015H
	DB	00H
	DB	00H
	DB	00H
	DB	07H
	DB	00H
	DB	00H
	DB	00H
	DB	00H
	DB	00H
	DB	00H
	DB	00H
	DB	00H
	DB	00H
	DB	00H
	DB	00H
	DB	07H
	DB	00H
	DB	00H
	DB	00H
	DB	015H
	DB	02eH
	DB	029H
	DB	01fH
	DB	0ffH
	DB	02eH
	DB	029H
	DB	01fH
	DB	0ffH
	DB	0ffH
	DB	0ffH
	DB	0ffH
	DB	0ffH
	DB	0ffH
	DB	0ffH
	DB	0ffH
	DB	0ffH
	DB	0ffH
	DB	0ffH
	DB	0ffH
	DB	0ffH
	DB	0ffH
	DB	0ffH
	DB	0ffH
	DB	0ffH
	DB	0ffH
	DB	0ffH
	DB	0ffH
	DB	0ffH
	DB	02eH
	DB	029H
	DB	01fH
	DB	0ffH
	DB	02eH
	DB	029H
	DB	01fH
	DB	0ffH
	DB	00H
	DB	00H
	DB	00H
	DB	015H
	DB	00H
	DB	00H
	DB	00H
	DB	07H
	DB	00H
	DB	00H
	DB	00H
	DB	00H
	DB	00H
	DB	00H
	DB	00H
	DB	00H
	DB	00H
	DB	00H
	DB	00H
	DB	07H
	DB	00H
	DB	00H
	DB	00H
	DB	015H
	DB	02eH
	DB	029H
	DB	01fH
	DB	0ffH
	DB	02eH
	DB	029H
	DB	01fH
	DB	0ffH
	DB	0ffH
	DB	0ffH
	DB	0ffH
	DB	0ffH
	DB	0ffH
	DB	0ffH
	DB	0ffH
	DB	0ffH
	DB	0ffH
	DB	0ffH
	DB	0ffH
	DB	0ffH
	DB	0ffH
	DB	0ffH
	DB	0ffH
	DB	0ffH
	DB	0ffH
	DB	0ffH
	DB	0ffH
	DB	0ffH
	DB	02eH
	DB	029H
	DB	01fH
	DB	0ffH
	DB	02eH
	DB	029H
	DB	01fH
	DB	0ffH
	DB	00H
	DB	00H
	DB	00H
	DB	015H
	DB	00H
	DB	00H
	DB	00H
	DB	07H
	DB	00H
	DB	00H
	DB	00H
	DB	00H
	DB	00H
	DB	00H
	DB	00H
	DB	00H
	DB	00H
	DB	00H
	DB	00H
	DB	07H
	DB	00H
	DB	00H
	DB	00H
	DB	015H
	DB	02eH
	DB	029H
	DB	01fH
	DB	0ffH
	DB	02eH
	DB	029H
	DB	01fH
	DB	0ffH
	DB	0ffH
	DB	0ffH
	DB	0ffH
	DB	0ffH
	DB	0ffH
	DB	0ffH
	DB	0ffH
	DB	0ffH
	DB	0ffH
	DB	0ffH
	DB	0ffH
	DB	0ffH
	DB	0ffH
	DB	0ffH
	DB	0ffH
	DB	0ffH
	DB	0ffH
	DB	0ffH
	DB	0ffH
	DB	0ffH
	DB	02eH
	DB	029H
	DB	01fH
	DB	0ffH
	DB	02eH
	DB	029H
	DB	01fH
	DB	0ffH
	DB	00H
	DB	00H
	DB	00H
	DB	015H
	DB	00H
	DB	00H
	DB	00H
	DB	07H
	DB	00H
	DB	00H
	DB	00H
	DB	00H
	DB	00H
	DB	00H
	DB	00H
	DB	00H
	DB	00H
	DB	00H
	DB	00H
	DB	07H
	DB	00H
	DB	00H
	DB	00H
	DB	015H
	DB	02eH
	DB	029H
	DB	01fH
	DB	0ffH
	DB	02eH
	DB	029H
	DB	01fH
	DB	0ffH
	DB	0ffH
	DB	0ffH
	DB	0ffH
	DB	0ffH
	DB	0ffH
	DB	0ffH
	DB	0ffH
	DB	0ffH
	DB	0ffH
	DB	0ffH
	DB	0ffH
	DB	0ffH
	DB	0ffH
	DB	0ffH
	DB	0ffH
	DB	0ffH
	DB	0ffH
	DB	0ffH
	DB	0ffH
	DB	0ffH
	DB	02eH
	DB	029H
	DB	01fH
	DB	0ffH
	DB	02eH
	DB	029H
	DB	01fH
	DB	0ffH
	DB	00H
	DB	00H
	DB	00H
	DB	015H
	DB	00H
	DB	00H
	DB	00H
	DB	07H
	DB	00H
	DB	00H
	DB	00H
	DB	00H
	DB	00H
	DB	00H
	DB	00H
	DB	00H
	DB	00H
	DB	00H
	DB	00H
	DB	07H
	DB	00H
	DB	00H
	DB	00H
	DB	015H
	DB	02eH
	DB	029H
	DB	01fH
	DB	0ffH
	DB	02eH
	DB	029H
	DB	01fH
	DB	0ffH
	DB	0ffH
	DB	0ffH
	DB	0ffH
	DB	0ffH
	DB	0ffH
	DB	0ffH
	DB	0ffH
	DB	0ffH
	DB	0ffH
	DB	0ffH
	DB	0ffH
	DB	0ffH
	DB	0ffH
	DB	0ffH
	DB	0ffH
	DB	0ffH
	DB	0ffH
	DB	0ffH
	DB	0ffH
	DB	0ffH
	DB	02eH
	DB	029H
	DB	01fH
	DB	0ffH
	DB	02eH
	DB	029H
	DB	01fH
	DB	0ffH
	DB	00H
	DB	00H
	DB	00H
	DB	015H
	DB	00H
	DB	00H
	DB	00H
	DB	07H
	DB	00H
	DB	00H
	DB	00H
	DB	00H
	DB	00H
	DB	00H
	DB	00H
	DB	00H
	DB	00H
	DB	00H
	DB	00H
	DB	07H
	DB	00H
	DB	00H
	DB	00H
	DB	015H
	DB	02eH
	DB	029H
	DB	01fH
	DB	0ffH
	DB	02eH
	DB	029H
	DB	01fH
	DB	0ffH
	DB	0ffH
	DB	0ffH
	DB	0ffH
	DB	0ffH
	DB	0ffH
	DB	0ffH
	DB	0ffH
	DB	0ffH
	DB	0ffH
	DB	0ffH
	DB	0ffH
	DB	0ffH
	DB	0ffH
	DB	0ffH
	DB	0ffH
	DB	0ffH
	DB	0ffH
	DB	0ffH
	DB	0ffH
	DB	0ffH
	DB	02eH
	DB	029H
	DB	01fH
	DB	0ffH
	DB	02eH
	DB	029H
	DB	01fH
	DB	0ffH
	DB	00H
	DB	00H
	DB	00H
	DB	015H
	DB	00H
	DB	00H
	DB	00H
	DB	07H
	DB	00H
	DB	00H
	DB	00H
	DB	00H
	DB	00H
	DB	00H
	DB	00H
	DB	00H
	DB	00H
	DB	00H
	DB	00H
	DB	07H
	DB	00H
	DB	00H
	DB	00H
	DB	015H
	DB	02eH
	DB	029H
	DB	01fH
	DB	0ffH
	DB	02eH
	DB	029H
	DB	01fH
	DB	0ffH
	DB	0ffH
	DB	0ffH
	DB	0ffH
	DB	0ffH
	DB	0ffH
	DB	0ffH
	DB	0ffH
	DB	0ffH
	DB	0ffH
	DB	0ffH
	DB	0ffH
	DB	0ffH
	DB	0ffH
	DB	0ffH
	DB	0ffH
	DB	0ffH
	DB	0ffH
	DB	0ffH
	DB	0ffH
	DB	0ffH
	DB	02eH
	DB	029H
	DB	01fH
	DB	0ffH
	DB	02eH
	DB	029H
	DB	01fH
	DB	0ffH
	DB	00H
	DB	00H
	DB	00H
	DB	015H
	DB	00H
	DB	00H
	DB	00H
	DB	07H
	DB	00H
	DB	00H
	DB	00H
	DB	00H
	DB	00H
	DB	00H
	DB	00H
	DB	00H
	DB	00H
	DB	00H
	DB	00H
	DB	07H
	DB	00H
	DB	00H
	DB	00H
	DB	015H
	DB	02eH
	DB	029H
	DB	01fH
	DB	0ffH
	DB	02eH
	DB	029H
	DB	01fH
	DB	0ffH
	DB	0ffH
	DB	0ffH
	DB	0ffH
	DB	0ffH
	DB	0ffH
	DB	0ffH
	DB	0ffH
	DB	0ffH
	DB	0ffH
	DB	0ffH
	DB	0ffH
	DB	0ffH
	DB	0ffH
	DB	0ffH
	DB	0ffH
	DB	0ffH
	DB	0ffH
	DB	0ffH
	DB	0ffH
	DB	0ffH
	DB	02eH
	DB	029H
	DB	01fH
	DB	0ffH
	DB	02eH
	DB	029H
	DB	01fH
	DB	0ffH
	DB	00H
	DB	00H
	DB	00H
	DB	015H
	DB	00H
	DB	00H
	DB	00H
	DB	07H
	DB	00H
	DB	00H
	DB	00H
	DB	00H
	DB	00H
	DB	00H
	DB	00H
	DB	00H
	DB	00H
	DB	00H
	DB	00H
	DB	07H
	DB	00H
	DB	00H
	DB	00H
	DB	015H
	DB	02eH
	DB	029H
	DB	01fH
	DB	0ffH
	DB	02eH
	DB	029H
	DB	01fH
	DB	0ffH
	DB	0ffH
	DB	0ffH
	DB	0ffH
	DB	0ffH
	DB	0ffH
	DB	0ffH
	DB	0ffH
	DB	0ffH
	DB	0ffH
	DB	0ffH
	DB	0ffH
	DB	0ffH
	DB	0ffH
	DB	0ffH
	DB	0ffH
	DB	0ffH
	DB	0ffH
	DB	0ffH
	DB	0ffH
	DB	0ffH
	DB	02eH
	DB	029H
	DB	01fH
	DB	0ffH
	DB	02eH
	DB	029H
	DB	01fH
	DB	0ffH
	DB	00H
	DB	00H
	DB	00H
	DB	015H
	DB	00H
	DB	00H
	DB	00H
	DB	07H
	DB	00H
	DB	00H
	DB	00H
	DB	00H
	DB	00H
	DB	00H
	DB	00H
	DB	00H
	DB	00H
	DB	00H
	DB	00H
	DB	07H
	DB	00H
	DB	00H
	DB	00H
	DB	015H
	DB	02eH
	DB	029H
	DB	01fH
	DB	0ffH
	DB	02eH
	DB	029H
	DB	01fH
	DB	0ffH
	DB	0ffH
	DB	0ffH
	DB	0ffH
	DB	0ffH
	DB	0ffH
	DB	0ffH
	DB	0ffH
	DB	0ffH
	DB	0ffH
	DB	0ffH
	DB	0ffH
	DB	0ffH
	DB	0ffH
	DB	0ffH
	DB	0ffH
	DB	0ffH
	DB	0ffH
	DB	0ffH
	DB	0ffH
	DB	0ffH
	DB	02eH
	DB	029H
	DB	01fH
	DB	0ffH
	DB	02eH
	DB	029H
	DB	01fH
	DB	0ffH
	DB	00H
	DB	00H
	DB	00H
	DB	015H
	DB	00H
	DB	00H
	DB	00H
	DB	07H
	DB	00H
	DB	00H
	DB	00H
	DB	00H
	DB	00H
	DB	00H
	DB	00H
	DB	00H
	DB	00H
	DB	00H
	DB	00H
	DB	07H
	DB	00H
	DB	00H
	DB	00H
	DB	015H
	DB	02eH
	DB	029H
	DB	01fH
	DB	0ffH
	DB	02eH
	DB	029H
	DB	01fH
	DB	0ffH
	DB	0ffH
	DB	0ffH
	DB	0ffH
	DB	0ffH
	DB	0ffH
	DB	0ffH
	DB	0ffH
	DB	0ffH
	DB	0ffH
	DB	0ffH
	DB	0ffH
	DB	0ffH
	DB	0ffH
	DB	0ffH
	DB	0ffH
	DB	0ffH
	DB	0ffH
	DB	0ffH
	DB	0ffH
	DB	0ffH
	DB	02eH
	DB	029H
	DB	01fH
	DB	0ffH
	DB	02eH
	DB	029H
	DB	01fH
	DB	0ffH
	DB	00H
	DB	00H
	DB	00H
	DB	015H
	DB	00H
	DB	00H
	DB	00H
	DB	07H
	DB	00H
	DB	00H
	DB	00H
	DB	00H
	DB	00H
	DB	00H
	DB	00H
	DB	00H
	DB	00H
	DB	00H
	DB	00H
	DB	07H
	DB	00H
	DB	00H
	DB	00H
	DB	015H
	DB	02eH
	DB	029H
	DB	01fH
	DB	0ffH
	DB	02eH
	DB	029H
	DB	01fH
	DB	0ffH
	DB	0ffH
	DB	0ffH
	DB	0ffH
	DB	0ffH
	DB	0ffH
	DB	0ffH
	DB	0ffH
	DB	0ffH
	DB	0ffH
	DB	0ffH
	DB	0ffH
	DB	0ffH
	DB	0ffH
	DB	0ffH
	DB	0ffH
	DB	0ffH
	DB	0ffH
	DB	0ffH
	DB	0ffH
	DB	0ffH
	DB	02eH
	DB	029H
	DB	01fH
	DB	0ffH
	DB	02eH
	DB	029H
	DB	01fH
	DB	0ffH
	DB	00H
	DB	00H
	DB	00H
	DB	015H
	DB	00H
	DB	00H
	DB	00H
	DB	07H
	DB	00H
	DB	00H
	DB	00H
	DB	00H
	DB	00H
	DB	00H
	DB	00H
	DB	00H
	DB	00H
	DB	00H
	DB	00H
	DB	07H
	DB	00H
	DB	00H
	DB	00H
	DB	015H
	DB	02eH
	DB	029H
	DB	01fH
	DB	0ffH
	DB	02eH
	DB	029H
	DB	01fH
	DB	0ffH
	DB	0ffH
	DB	0ffH
	DB	0ffH
	DB	0ffH
	DB	0ffH
	DB	0ffH
	DB	0ffH
	DB	0ffH
	DB	0ffH
	DB	0ffH
	DB	0ffH
	DB	0ffH
	DB	0ffH
	DB	0ffH
	DB	0ffH
	DB	0ffH
	DB	0ffH
	DB	0ffH
	DB	0ffH
	DB	0ffH
	DB	02eH
	DB	029H
	DB	01fH
	DB	0ffH
	DB	02eH
	DB	029H
	DB	01fH
	DB	0ffH
	DB	00H
	DB	00H
	DB	00H
	DB	015H
	DB	00H
	DB	00H
	DB	00H
	DB	07H
	DB	00H
	DB	00H
	DB	00H
	DB	00H
	DB	00H
	DB	00H
	DB	00H
	DB	00H
	DB	00H
	DB	00H
	DB	00H
	DB	07H
	DB	00H
	DB	00H
	DB	00H
	DB	015H
	DB	02eH
	DB	029H
	DB	01fH
	DB	0ffH
	DB	02eH
	DB	029H
	DB	01fH
	DB	0ffH
	DB	0ffH
	DB	0ffH
	DB	0ffH
	DB	0ffH
	DB	0ffH
	DB	0ffH
	DB	0ffH
	DB	0ffH
	DB	0ffH
	DB	0ffH
	DB	0ffH
	DB	0ffH
	DB	0ffH
	DB	0ffH
	DB	0ffH
	DB	0ffH
	DB	0ffH
	DB	0ffH
	DB	0ffH
	DB	0ffH
	DB	02eH
	DB	029H
	DB	01fH
	DB	0ffH
	DB	02eH
	DB	029H
	DB	01fH
	DB	0ffH
	DB	00H
	DB	00H
	DB	00H
	DB	015H
	DB	00H
	DB	00H
	DB	00H
	DB	07H
	DB	00H
	DB	00H
	DB	00H
	DB	00H
	DB	00H
	DB	00H
	DB	00H
	DB	00H
	DB	00H
	DB	00H
	DB	00H
	DB	07H
	DB	00H
	DB	00H
	DB	00H
	DB	015H
	DB	02eH
	DB	029H
	DB	01fH
	DB	0ffH
	DB	02eH
	DB	029H
	DB	01fH
	DB	0ffH
	DB	0ffH
	DB	0ffH
	DB	0ffH
	DB	0ffH
	DB	0ffH
	DB	0ffH
	DB	0ffH
	DB	0ffH
	DB	0ffH
	DB	0ffH
	DB	0ffH
	DB	0ffH
	DB	0ffH
	DB	0ffH
	DB	0ffH
	DB	0ffH
	DB	0ffH
	DB	0ffH
	DB	0ffH
	DB	0ffH
	DB	02eH
	DB	029H
	DB	01fH
	DB	0ffH
	DB	02eH
	DB	029H
	DB	01fH
	DB	0ffH
	DB	00H
	DB	00H
	DB	00H
	DB	015H
	DB	00H
	DB	00H
	DB	00H
	DB	07H
	DB	00H
	DB	00H
	DB	00H
	DB	00H
	DB	00H
	DB	00H
	DB	00H
	DB	00H
	DB	00H
	DB	00H
	DB	00H
	DB	07H
	DB	00H
	DB	00H
	DB	00H
	DB	015H
	DB	02eH
	DB	029H
	DB	01fH
	DB	0ffH
	DB	02eH
	DB	029H
	DB	01fH
	DB	0ffH
	DB	0ffH
	DB	0ffH
	DB	0ffH
	DB	0ffH
	DB	0ffH
	DB	0ffH
	DB	0ffH
	DB	0ffH
	DB	0ffH
	DB	0ffH
	DB	0ffH
	DB	0ffH
	DB	0ffH
	DB	0ffH
	DB	0ffH
	DB	0ffH
	DB	0ffH
	DB	0ffH
	DB	0ffH
	DB	0ffH
	DB	02eH
	DB	029H
	DB	01fH
	DB	0ffH
	DB	02eH
	DB	029H
	DB	01fH
	DB	0ffH
	DB	00H
	DB	00H
	DB	00H
	DB	015H
	DB	00H
	DB	00H
	DB	00H
	DB	07H
	DB	00H
	DB	00H
	DB	00H
	DB	00H
	DB	00H
	DB	00H
	DB	00H
	DB	00H
	DB	00H
	DB	00H
	DB	00H
	DB	07H
	DB	00H
	DB	00H
	DB	00H
	DB	015H
	DB	02eH
	DB	029H
	DB	01fH
	DB	0ffH
	DB	02eH
	DB	029H
	DB	01fH
	DB	0ffH
	DB	0ffH
	DB	0ffH
	DB	0ffH
	DB	0ffH
	DB	0ffH
	DB	0ffH
	DB	0ffH
	DB	0ffH
	DB	0ffH
	DB	0ffH
	DB	0ffH
	DB	0ffH
	DB	0ffH
	DB	0ffH
	DB	0ffH
	DB	0ffH
	DB	0ffH
	DB	0ffH
	DB	0ffH
	DB	0ffH
	DB	02eH
	DB	029H
	DB	01fH
	DB	0ffH
	DB	02eH
	DB	029H
	DB	01fH
	DB	0ffH
	DB	00H
	DB	00H
	DB	00H
	DB	015H
	DB	00H
	DB	00H
	DB	00H
	DB	07H
	DB	00H
	DB	00H
	DB	00H
	DB	00H
	DB	00H
	DB	00H
	DB	00H
	DB	00H
	DB	00H
	DB	00H
	DB	00H
	DB	07H
	DB	00H
	DB	00H
	DB	00H
	DB	015H
	DB	02eH
	DB	029H
	DB	01fH
	DB	0ffH
	DB	02eH
	DB	029H
	DB	01fH
	DB	0ffH
	DB	0ffH
	DB	0ffH
	DB	0ffH
	DB	0ffH
	DB	0ffH
	DB	0ffH
	DB	0ffH
	DB	0ffH
	DB	0ffH
	DB	0ffH
	DB	0ffH
	DB	0ffH
	DB	0ffH
	DB	0ffH
	DB	0ffH
	DB	0ffH
	DB	0ffH
	DB	0ffH
	DB	0ffH
	DB	0ffH
	DB	02eH
	DB	029H
	DB	01fH
	DB	0ffH
	DB	02eH
	DB	029H
	DB	01fH
	DB	0ffH
	DB	00H
	DB	00H
	DB	00H
	DB	015H
	DB	00H
	DB	00H
	DB	00H
	DB	07H
	DB	00H
	DB	00H
	DB	00H
	DB	00H
	DB	00H
	DB	00H
	DB	00H
	DB	00H
	DB	00H
	DB	00H
	DB	00H
	DB	07H
	DB	00H
	DB	00H
	DB	00H
	DB	015H
	DB	02eH
	DB	029H
	DB	01fH
	DB	0ffH
	DB	02eH
	DB	029H
	DB	01fH
	DB	0ffH
	DB	02eH
	DB	029H
	DB	01fH
	DB	0ffH
	DB	02eH
	DB	029H
	DB	01fH
	DB	0ffH
	DB	02eH
	DB	029H
	DB	01fH
	DB	0ffH
	DB	02eH
	DB	029H
	DB	01fH
	DB	0ffH
	DB	02eH
	DB	029H
	DB	01fH
	DB	0ffH
	DB	02eH
	DB	029H
	DB	01fH
	DB	0ffH
	DB	02eH
	DB	029H
	DB	01fH
	DB	0ffH
	DB	00H
	DB	00H
	DB	00H
	DB	015H
	DB	00H
	DB	00H
	DB	00H
	DB	07H
	DB	00H
	DB	00H
	DB	00H
	DB	00H
	DB	00H
	DB	00H
	DB	00H
	DB	00H
	DB	00H
	DB	00H
	DB	00H
	DB	07H
	DB	00H
	DB	00H
	DB	00H
	DB	015H
	DB	02eH
	DB	029H
	DB	01fH
	DB	0ffH
	DB	02eH
	DB	029H
	DB	01fH
	DB	0ffH
	DB	02eH
	DB	029H
	DB	01fH
	DB	0ffH
	DB	02eH
	DB	029H
	DB	01fH
	DB	0ffH
	DB	02eH
	DB	029H
	DB	01fH
	DB	0ffH
	DB	02eH
	DB	029H
	DB	01fH
	DB	0ffH
	DB	02eH
	DB	029H
	DB	01fH
	DB	0ffH
	DB	02eH
	DB	029H
	DB	01fH
	DB	0ffH
	DB	02eH
	DB	029H
	DB	01fH
	DB	0ffH
	DB	00H
	DB	00H
	DB	00H
	DB	015H
	DB	00H
	DB	00H
	DB	00H
	DB	07H
	DB	00H
	DB	00H
	DB	00H
	DB	00H
	DB	00H
	DB	00H
	DB	00H
	DB	00H
	DB	00H
	DB	00H
	DB	00H
	DB	07H
	DB	00H
	DB	00H
	DB	00H
	DB	015H
	DB	02eH
	DB	029H
	DB	01fH
	DB	0ffH
	DB	02eH
	DB	029H
	DB	01fH
	DB	0ffH
	DB	02eH
	DB	029H
	DB	01fH
	DB	0ffH
	DB	02eH
	DB	029H
	DB	01fH
	DB	0ffH
	DB	02eH
	DB	029H
	DB	01fH
	DB	0ffH
	DB	02eH
	DB	029H
	DB	01fH
	DB	0ffH
	DB	02eH
	DB	029H
	DB	01fH
	DB	0ffH
	DB	02eH
	DB	029H
	DB	01fH
	DB	0ffH
	DB	02eH
	DB	029H
	DB	01fH
	DB	0ffH
	DB	00H
	DB	00H
	DB	00H
	DB	015H
	DB	00H
	DB	00H
	DB	00H
	DB	07H
	DB	00H
	DB	00H
	DB	00H
	DB	00H
	DB	00H
	DB	00H
	DB	00H
	DB	00H
	DB	00H
	DB	00H
	DB	00H
	DB	07H
	DB	00H
	DB	00H
	DB	00H
	DB	015H
	DB	02eH
	DB	029H
	DB	01fH
	DB	0ffH
	DB	02eH
	DB	029H
	DB	01fH
	DB	0ffH
	DB	02eH
	DB	029H
	DB	01fH
	DB	0ffH
	DB	02eH
	DB	029H
	DB	01fH
	DB	0ffH
	DB	02eH
	DB	029H
	DB	01fH
	DB	0ffH
	DB	02eH
	DB	029H
	DB	01fH
	DB	0ffH
	DB	02eH
	DB	029H
	DB	01fH
	DB	0ffH
	DB	02eH
	DB	029H
	DB	01fH
	DB	0ffH
	DB	02eH
	DB	029H
	DB	01fH
	DB	0ffH
	DB	00H
	DB	00H
	DB	00H
	DB	015H
	DB	00H
	DB	00H
	DB	00H
	DB	07H
	DB	00H
	DB	00H
	DB	00H
	DB	00H
	DB	00H
	DB	00H
	DB	00H
	DB	00H
	DB	00H
	DB	00H
	DB	00H
	DB	07H
	DB	00H
	DB	00H
	DB	00H
	DB	015H
	DB	02eH
	DB	029H
	DB	01fH
	DB	0ffH
	DB	02eH
	DB	029H
	DB	01fH
	DB	0ffH
	DB	02eH
	DB	029H
	DB	01fH
	DB	0ffH
	DB	02eH
	DB	029H
	DB	01fH
	DB	0ffH
	DB	02eH
	DB	029H
	DB	01fH
	DB	0ffH
	DB	02eH
	DB	029H
	DB	01fH
	DB	0ffH
	DB	02eH
	DB	029H
	DB	01fH
	DB	0ffH
	DB	02eH
	DB	029H
	DB	01fH
	DB	0ffH
	DB	02eH
	DB	029H
	DB	01fH
	DB	0ffH
	DB	00H
	DB	00H
	DB	00H
	DB	015H
	DB	00H
	DB	00H
	DB	00H
	DB	07H
	DB	00H
	DB	00H
	DB	00H
	DB	00H
	DB	00H
	DB	00H
	DB	00H
	DB	00H
	DB	00H
	DB	00H
	DB	00H
	DB	07H
	DB	00H
	DB	00H
	DB	00H
	DB	015H
	DB	02eH
	DB	029H
	DB	01fH
	DB	0ffH
	DB	02eH
	DB	029H
	DB	01fH
	DB	0ffH
	DB	02eH
	DB	029H
	DB	01fH
	DB	0ffH
	DB	02eH
	DB	029H
	DB	01fH
	DB	0ffH
	DB	02eH
	DB	029H
	DB	01fH
	DB	0ffH
	DB	02eH
	DB	029H
	DB	01fH
	DB	0ffH
	DB	02eH
	DB	029H
	DB	01fH
	DB	0ffH
	DB	02eH
	DB	029H
	DB	01fH
	DB	0ffH
	DB	02eH
	DB	029H
	DB	01fH
	DB	0ffH
	DB	00H
	DB	00H
	DB	00H
	DB	015H
	DB	00H
	DB	00H
	DB	00H
	DB	07H
	DB	00H
	DB	00H
	DB	00H
	DB	00H
	DB	00H
	DB	00H
	DB	00H
	DB	00H
	DB	00H
	DB	00H
	DB	00H
	DB	07H
	DB	00H
	DB	00H
	DB	00H
	DB	015H
	DB	02eH
	DB	029H
	DB	01fH
	DB	0ffH
	DB	02eH
	DB	029H
	DB	01fH
	DB	0ffH
	DB	02eH
	DB	029H
	DB	01fH
	DB	0ffH
	DB	02eH
	DB	029H
	DB	01fH
	DB	0ffH
	DB	02eH
	DB	029H
	DB	01fH
	DB	0ffH
	DB	02eH
	DB	029H
	DB	01fH
	DB	0ffH
	DB	02eH
	DB	029H
	DB	01fH
	DB	0ffH
	DB	02eH
	DB	029H
	DB	01fH
	DB	0ffH
	DB	02eH
	DB	029H
	DB	01fH
	DB	0ffH
	DB	00H
	DB	00H
	DB	00H
	DB	015H
	DB	00H
	DB	00H
	DB	00H
	DB	07H
	DB	00H
	DB	00H
	DB	00H
	DB	00H
	DB	00H
	DB	00H
	DB	00H
	DB	00H
	DB	00H
	DB	00H
	DB	00H
	DB	07H
	DB	00H
	DB	00H
	DB	00H
	DB	015H
	DB	02eH
	DB	029H
	DB	01fH
	DB	0ffH
	DB	02eH
	DB	029H
	DB	01fH
	DB	0ffH
	DB	02eH
	DB	029H
	DB	01fH
	DB	0ffH
	DB	02eH
	DB	029H
	DB	01fH
	DB	0ffH
	DB	02eH
	DB	029H
	DB	01fH
	DB	0ffH
	DB	02eH
	DB	029H
	DB	01fH
	DB	0ffH
	DB	02eH
	DB	029H
	DB	01fH
	DB	0ffH
	DB	02eH
	DB	029H
	DB	01fH
	DB	0ffH
	DB	02eH
	DB	029H
	DB	01fH
	DB	0ffH
	DB	00H
	DB	00H
	DB	00H
	DB	015H
	DB	00H
	DB	00H
	DB	00H
	DB	07H
	DB	00H
	DB	00H
	DB	00H
	DB	00H
	DB	00H
	DB	00H
	DB	00H
	DB	00H
	DB	00H
	DB	00H
	DB	00H
	DB	07H
	DB	00H
	DB	00H
	DB	00H
	DB	015H
	DB	02eH
	DB	029H
	DB	01fH
	DB	0ffH
	DB	02eH
	DB	029H
	DB	01fH
	DB	0ffH
	DB	02eH
	DB	029H
	DB	01fH
	DB	0ffH
	DB	02eH
	DB	029H
	DB	01fH
	DB	0ffH
	DB	02eH
	DB	029H
	DB	01fH
	DB	0ffH
	DB	02eH
	DB	029H
	DB	01fH
	DB	0ffH
	DB	02eH
	DB	029H
	DB	01fH
	DB	0ffH
	DB	02eH
	DB	029H
	DB	01fH
	DB	0ffH
	DB	02eH
	DB	029H
	DB	01fH
	DB	0ffH
	DB	00H
	DB	00H
	DB	00H
	DB	015H
	DB	00H
	DB	00H
	DB	00H
	DB	07H
	DB	00H
	DB	00H
	DB	00H
	DB	00H
	DB	00H
	DB	00H
	DB	00H
	DB	00H
	DB	00H
	DB	00H
	DB	00H
	DB	07H
	DB	00H
	DB	00H
	DB	00H
	DB	015H
	DB	02eH
	DB	029H
	DB	01fH
	DB	0ffH
	DB	02eH
	DB	029H
	DB	01fH
	DB	0ffH
	DB	02eH
	DB	029H
	DB	01fH
	DB	0ffH
	DB	02eH
	DB	029H
	DB	01fH
	DB	0ffH
	DB	02eH
	DB	029H
	DB	01fH
	DB	0ffH
	DB	02eH
	DB	029H
	DB	01fH
	DB	0ffH
	DB	02eH
	DB	029H
	DB	01fH
	DB	0ffH
	DB	02eH
	DB	029H
	DB	01fH
	DB	0ffH
	DB	02eH
	DB	029H
	DB	01fH
	DB	0ffH
	DB	00H
	DB	00H
	DB	00H
	DB	015H
	DB	00H
	DB	00H
	DB	00H
	DB	07H
	DB	00H
	DB	00H
	DB	00H
	DB	00H
	DB	00H
	DB	00H
	DB	00H
	DB	00H
	DB	00H
	DB	00H
	DB	00H
	DB	07H
	DB	00H
	DB	00H
	DB	00H
	DB	015H
	DB	02eH
	DB	029H
	DB	01fH
	DB	0ffH
	DB	02eH
	DB	029H
	DB	01fH
	DB	0ffH
	DB	02eH
	DB	029H
	DB	01fH
	DB	0ffH
	DB	02eH
	DB	029H
	DB	01fH
	DB	0ffH
	DB	02eH
	DB	029H
	DB	01fH
	DB	0ffH
	DB	02eH
	DB	029H
	DB	01fH
	DB	0ffH
	DB	02eH
	DB	029H
	DB	01fH
	DB	0ffH
	DB	02eH
	DB	029H
	DB	01fH
	DB	0ffH
	DB	02eH
	DB	029H
	DB	01fH
	DB	0ffH
	DB	00H
	DB	00H
	DB	00H
	DB	015H
	DB	00H
	DB	00H
	DB	00H
	DB	07H
	DB	00H
	DB	00H
	DB	00H
	DB	00H
	DB	00H
	DB	00H
	DB	00H
	DB	00H
	DB	00H
	DB	00H
	DB	00H
	DB	07H
	DB	00H
	DB	00H
	DB	00H
	DB	015H
	DB	02eH
	DB	029H
	DB	01fH
	DB	0ffH
	DB	02eH
	DB	029H
	DB	01fH
	DB	0ffH
	DB	02eH
	DB	029H
	DB	01fH
	DB	0ffH
	DB	02eH
	DB	029H
	DB	01fH
	DB	0ffH
	DB	02eH
	DB	029H
	DB	01fH
	DB	0ffH
	DB	02eH
	DB	029H
	DB	01fH
	DB	0ffH
	DB	02eH
	DB	029H
	DB	01fH
	DB	0ffH
	DB	02eH
	DB	029H
	DB	01fH
	DB	0ffH
	DB	02eH
	DB	029H
	DB	01fH
	DB	0ffH
	DB	00H
	DB	00H
	DB	00H
	DB	015H
	DB	00H
	DB	00H
	DB	00H
	DB	07H
	DB	00H
	DB	00H
	DB	00H
	DB	00H
	DB	00H
	DB	00H
	DB	00H
	DB	00H
	DB	00H
	DB	00H
	DB	00H
	DB	07H
	DB	00H
	DB	00H
	DB	00H
	DB	015H
	DB	02eH
	DB	029H
	DB	01fH
	DB	0ffH
	DB	02eH
	DB	029H
	DB	01fH
	DB	0ffH
	DB	02eH
	DB	029H
	DB	01fH
	DB	0ffH
	DB	02eH
	DB	029H
	DB	01fH
	DB	0ffH
	DB	02eH
	DB	029H
	DB	01fH
	DB	0ffH
	DB	02eH
	DB	029H
	DB	01fH
	DB	0ffH
	DB	02eH
	DB	029H
	DB	01fH
	DB	0ffH
	DB	02eH
	DB	029H
	DB	01fH
	DB	0ffH
	DB	02eH
	DB	029H
	DB	01fH
	DB	0ffH
	DB	00H
	DB	00H
	DB	00H
	DB	015H
	DB	00H
	DB	00H
	DB	00H
	DB	07H
	DB	00H
	DB	00H
	DB	00H
	DB	00H
	DB	00H
	DB	00H
	DB	00H
	DB	00H
	DB	00H
	DB	00H
	DB	00H
	DB	07H
	DB	00H
	DB	00H
	DB	00H
	DB	015H
	DB	02eH
	DB	029H
	DB	01fH
	DB	0ffH
	DB	02eH
	DB	029H
	DB	01fH
	DB	0ffH
	DB	02eH
	DB	029H
	DB	01fH
	DB	0ffH
	DB	02eH
	DB	029H
	DB	01fH
	DB	0ffH
	DB	02eH
	DB	029H
	DB	01fH
	DB	0ffH
	DB	02eH
	DB	029H
	DB	01fH
	DB	0ffH
	DB	02eH
	DB	029H
	DB	01fH
	DB	0ffH
	DB	02eH
	DB	029H
	DB	01fH
	DB	0ffH
	DB	02eH
	DB	029H
	DB	01fH
	DB	0ffH
	DB	00H
	DB	00H
	DB	00H
	DB	015H
	DB	00H
	DB	00H
	DB	00H
	DB	07H
	DB	00H
	DB	00H
	DB	00H
	DB	00H
	DB	00H
	DB	00H
	DB	00H
	DB	00H
	DB	00H
	DB	00H
	DB	00H
	DB	07H
	DB	00H
	DB	00H
	DB	00H
	DB	015H
	DB	02eH
	DB	029H
	DB	01fH
	DB	0ffH
	DB	02eH
	DB	029H
	DB	01fH
	DB	0ffH
	DB	02eH
	DB	029H
	DB	01fH
	DB	0ffH
	DB	02eH
	DB	029H
	DB	01fH
	DB	0ffH
	DB	02eH
	DB	029H
	DB	01fH
	DB	0ffH
	DB	02eH
	DB	029H
	DB	01fH
	DB	0ffH
	DB	02eH
	DB	029H
	DB	01fH
	DB	0ffH
	DB	02eH
	DB	029H
	DB	01fH
	DB	0ffH
	DB	02eH
	DB	029H
	DB	01fH
	DB	0ffH
	DB	00H
	DB	00H
	DB	00H
	DB	015H
	DB	00H
	DB	00H
	DB	00H
	DB	07H
	DB	00H
	DB	00H
	DB	00H
	DB	00H
	DB	00H
	DB	00H
	DB	00H
	DB	00H
	DB	00H
	DB	00H
	DB	00H
	DB	07H
	DB	00H
	DB	00H
	DB	00H
	DB	015H
	DB	02eH
	DB	029H
	DB	01fH
	DB	0ffH
	DB	02eH
	DB	029H
	DB	01fH
	DB	0ffH
	DB	02eH
	DB	029H
	DB	01fH
	DB	0ffH
	DB	02eH
	DB	029H
	DB	01fH
	DB	0ffH
	DB	02eH
	DB	029H
	DB	01fH
	DB	0ffH
	DB	02eH
	DB	029H
	DB	01fH
	DB	0ffH
	DB	02eH
	DB	029H
	DB	01fH
	DB	0ffH
	DB	02eH
	DB	029H
	DB	01fH
	DB	0ffH
	DB	02eH
	DB	029H
	DB	01fH
	DB	0ffH
	DB	00H
	DB	00H
	DB	00H
	DB	015H
	DB	00H
	DB	00H
	DB	00H
	DB	07H
	DB	00H
	DB	00H
	DB	00H
	DB	00H
	DB	00H
	DB	00H
	DB	00H
	DB	00H
	DB	00H
	DB	00H
	DB	00H
	DB	07H
	DB	00H
	DB	00H
	DB	00H
	DB	015H
	DB	02eH
	DB	029H
	DB	01fH
	DB	0ffH
	DB	02eH
	DB	029H
	DB	01fH
	DB	0ffH
	DB	02eH
	DB	029H
	DB	01fH
	DB	0ffH
	DB	02eH
	DB	029H
	DB	01fH
	DB	0ffH
	DB	02eH
	DB	029H
	DB	01fH
	DB	0ffH
	DB	02eH
	DB	029H
	DB	01fH
	DB	0ffH
	DB	02eH
	DB	029H
	DB	01fH
	DB	0ffH
	DB	02eH
	DB	029H
	DB	01fH
	DB	0ffH
	DB	02eH
	DB	029H
	DB	01fH
	DB	0ffH
	DB	00H
	DB	00H
	DB	00H
	DB	015H
	DB	00H
	DB	00H
	DB	00H
	DB	07H
	DB	00H
	DB	00H
	DB	00H
	DB	00H
	DB	00H
	DB	00H
	DB	00H
	DB	00H
	DB	00H
	DB	00H
	DB	00H
	DB	07H
	DB	00H
	DB	00H
	DB	00H
	DB	015H
	DB	02eH
	DB	029H
	DB	01fH
	DB	0ffH
	DB	02eH
	DB	029H
	DB	01fH
	DB	0ffH
	DB	02eH
	DB	029H
	DB	01fH
	DB	0ffH
	DB	02eH
	DB	029H
	DB	01fH
	DB	0ffH
	DB	02eH
	DB	029H
	DB	01fH
	DB	0ffH
	DB	02eH
	DB	029H
	DB	01fH
	DB	0ffH
	DB	02eH
	DB	029H
	DB	01fH
	DB	0ffH
	DB	02eH
	DB	029H
	DB	01fH
	DB	0ffH
	DB	02eH
	DB	029H
	DB	01fH
	DB	0ffH
	DB	00H
	DB	00H
	DB	00H
	DB	015H
	DB	00H
	DB	00H
	DB	00H
	DB	07H
	DB	00H
	DB	00H
	DB	00H
	DB	00H
	DB	00H
	DB	00H
	DB	00H
	DB	00H
	DB	00H
	DB	00H
	DB	00H
	DB	07H
	DB	00H
	DB	00H
	DB	00H
	DB	015H
	DB	02eH
	DB	029H
	DB	01fH
	DB	0ffH
	DB	02eH
	DB	029H
	DB	01fH
	DB	0ffH
	DB	02eH
	DB	029H
	DB	01fH
	DB	0ffH
	DB	02eH
	DB	029H
	DB	01fH
	DB	0ffH
	DB	02eH
	DB	029H
	DB	01fH
	DB	0ffH
	DB	02eH
	DB	029H
	DB	01fH
	DB	0ffH
	DB	02eH
	DB	029H
	DB	01fH
	DB	0ffH
	DB	02eH
	DB	029H
	DB	01fH
	DB	0ffH
	DB	02eH
	DB	029H
	DB	01fH
	DB	0ffH
	DB	00H
	DB	00H
	DB	00H
	DB	015H
	DB	00H
	DB	00H
	DB	00H
	DB	07H
	DB	00H
	DB	00H
	DB	00H
	DB	00H
	DB	00H
	DB	00H
	DB	00H
	DB	00H
	DB	00H
	DB	00H
	DB	00H
	DB	07H
	DB	00H
	DB	00H
	DB	00H
	DB	015H
	DB	02eH
	DB	029H
	DB	01fH
	DB	0ffH
	DB	02eH
	DB	029H
	DB	01fH
	DB	0ffH
	DB	02eH
	DB	029H
	DB	01fH
	DB	0ffH
	DB	02eH
	DB	029H
	DB	01fH
	DB	0ffH
	DB	02eH
	DB	029H
	DB	01fH
	DB	0ffH
	DB	02eH
	DB	029H
	DB	01fH
	DB	0ffH
	DB	02eH
	DB	029H
	DB	01fH
	DB	0ffH
	DB	02eH
	DB	029H
	DB	01fH
	DB	0ffH
	DB	02eH
	DB	029H
	DB	01fH
	DB	0ffH
	DB	00H
	DB	00H
	DB	00H
	DB	015H
	DB	00H
	DB	00H
	DB	00H
	DB	07H
	DB	00H
	DB	00H
	DB	00H
	DB	00H
	DB	00H
	DB	00H
	DB	00H
	DB	00H
	DB	00H
	DB	00H
	DB	00H
	DB	07H
	DB	00H
	DB	00H
	DB	00H
	DB	015H
	DB	02eH
	DB	029H
	DB	01fH
	DB	0ffH
	DB	02eH
	DB	029H
	DB	01fH
	DB	0ffH
	DB	02eH
	DB	029H
	DB	01fH
	DB	0ffH
	DB	02eH
	DB	029H
	DB	01fH
	DB	0ffH
	DB	02eH
	DB	029H
	DB	01fH
	DB	0ffH
	DB	02eH
	DB	029H
	DB	01fH
	DB	0ffH
	DB	02eH
	DB	029H
	DB	01fH
	DB	0ffH
	DB	02eH
	DB	029H
	DB	01fH
	DB	0ffH
	DB	02eH
	DB	029H
	DB	01fH
	DB	0ffH
	DB	00H
	DB	00H
	DB	00H
	DB	015H
	DB	00H
	DB	00H
	DB	00H
	DB	07H
	DB	00H
	DB	00H
	DB	00H
	DB	00H
	DB	00H
	DB	00H
	DB	00H
	DB	00H
	DB	00H
	DB	00H
	DB	00H
	DB	07H
	DB	010H
	DB	0fH
	DB	0eH
	DB	01aH
	DB	02eH
	DB	029H
	DB	01fH
	DB	0ffH
	DB	02eH
	DB	029H
	DB	01fH
	DB	0ffH
	DB	02eH
	DB	029H
	DB	01fH
	DB	0ffH
	DB	02eH
	DB	029H
	DB	01fH
	DB	0ffH
	DB	02eH
	DB	029H
	DB	01fH
	DB	0ffH
	DB	02eH
	DB	029H
	DB	01fH
	DB	0ffH
	DB	02eH
	DB	029H
	DB	01fH
	DB	0ffH
	DB	02eH
	DB	029H
	DB	01fH
	DB	0ffH
	DB	02eH
	DB	029H
	DB	01fH
	DB	0ffH
	DB	00H
	DB	00H
	DB	00H
	DB	015H
	DB	00H
	DB	00H
	DB	00H
	DB	07H
	DB	00H
	DB	00H
	DB	00H
	DB	00H
	DB	00H
	DB	00H
	DB	00H
	DB	00H
	DB	00H
	DB	00H
	DB	00H
	DB	07H
	DB	023H
	DB	021H
	DB	01eH
	DB	024H
	DB	02eH
	DB	029H
	DB	01fH
	DB	0ffH
	DB	02eH
	DB	029H
	DB	01fH
	DB	0ffH
	DB	02eH
	DB	029H
	DB	01fH
	DB	0ffH
	DB	02eH
	DB	029H
	DB	01fH
	DB	0ffH
	DB	02eH
	DB	029H
	DB	01fH
	DB	0ffH
	DB	02eH
	DB	029H
	DB	01fH
	DB	0ffH
	DB	02eH
	DB	029H
	DB	01fH
	DB	0ffH
	DB	02eH
	DB	029H
	DB	01fH
	DB	0ffH
	DB	02eH
	DB	029H
	DB	01fH
	DB	0ffH
	DB	00H
	DB	00H
	DB	00H
	DB	015H
	DB	00H
	DB	00H
	DB	00H
	DB	07H
	DB	00H
	DB	00H
	DB	00H
	DB	00H
	DB	00H
	DB	00H
	DB	00H
	DB	00H
	DB	00H
	DB	00H
	DB	00H
	DB	08H
	DB	022H
	DB	020H
	DB	01dH
	DB	024H
	DB	02eH
	DB	029H
	DB	01fH
	DB	0ffH
	DB	02eH
	DB	029H
	DB	01fH
	DB	0ffH
	DB	02eH
	DB	029H
	DB	01fH
	DB	0ffH
	DB	02eH
	DB	029H
	DB	01fH
	DB	0ffH
	DB	02eH
	DB	029H
	DB	01fH
	DB	0ffH
	DB	02eH
	DB	029H
	DB	01fH
	DB	0ffH
	DB	02eH
	DB	029H
	DB	01fH
	DB	0ffH
	DB	02eH
	DB	029H
	DB	01fH
	DB	0ffH
	DB	02eH
	DB	029H
	DB	01fH
	DB	0ffH
	DB	00H
	DB	00H
	DB	00H
	DB	015H
	DB	00H
	DB	00H
	DB	00H
	DB	07H
	DB	00H
	DB	00H
	DB	00H
	DB	00H
	DB	00H
	DB	00H
	DB	00H
	DB	00H
	DB	00H
	DB	00H
	DB	00H
	DB	08H
	DB	022H
	DB	020H
	DB	01dH
	DB	024H
	DB	02eH
	DB	029H
	DB	01fH
	DB	0ffH
	DB	02eH
	DB	029H
	DB	01fH
	DB	0ffH
	DB	02eH
	DB	029H
	DB	01fH
	DB	0ffH
	DB	02eH
	DB	029H
	DB	01fH
	DB	0ffH
	DB	02eH
	DB	029H
	DB	01fH
	DB	0ffH
	DB	02eH
	DB	029H
	DB	01fH
	DB	0ffH
	DB	02eH
	DB	029H
	DB	01fH
	DB	0ffH
	DB	02eH
	DB	029H
	DB	01fH
	DB	0ffH
	DB	02eH
	DB	029H
	DB	01fH
	DB	0ffH
	DB	00H
	DB	00H
	DB	00H
	DB	015H
	DB	00H
	DB	00H
	DB	00H
	DB	07H
	DB	00H
	DB	00H
	DB	00H
	DB	00H
	DB	00H
	DB	00H
	DB	00H
	DB	01H
	DB	00H
	DB	00H
	DB	00H
	DB	08H
	DB	021H
	DB	01fH
	DB	01cH
	DB	025H
	DB	02eH
	DB	029H
	DB	01fH
	DB	0ffH
	DB	02eH
	DB	029H
	DB	01fH
	DB	0ffH
	DB	02eH
	DB	029H
	DB	01fH
	DB	0ffH
	DB	02eH
	DB	029H
	DB	01fH
	DB	0ffH
	DB	02eH
	DB	029H
	DB	01fH
	DB	0ffH
	DB	02eH
	DB	029H
	DB	01fH
	DB	0ffH
	DB	02eH
	DB	029H
	DB	01fH
	DB	0ffH
	DB	02eH
	DB	029H
	DB	01fH
	DB	0ffH
	DB	02eH
	DB	029H
	DB	01fH
	DB	0ffH
	DB	00H
	DB	00H
	DB	00H
	DB	015H
	DB	00H
	DB	00H
	DB	00H
	DB	07H
	DB	00H
	DB	00H
	DB	00H
	DB	00H
	DB	00H
	DB	00H
	DB	00H
	DB	01H
	DB	00H
	DB	00H
	DB	00H
	DB	08H
	DB	021H
	DB	01fH
	DB	01cH
	DB	025H
	DB	02eH
	DB	029H
	DB	01fH
	DB	0ffH
	DB	02eH
	DB	029H
	DB	01fH
	DB	0ffH
	DB	02eH
	DB	029H
	DB	01fH
	DB	0ffH
	DB	02eH
	DB	029H
	DB	01fH
	DB	0ffH
	DB	02eH
	DB	029H
	DB	01fH
	DB	0ffH
	DB	02eH
	DB	029H
	DB	01fH
	DB	0ffH
	DB	02eH
	DB	029H
	DB	01fH
	DB	0ffH
	DB	02eH
	DB	029H
	DB	01fH
	DB	0ffH
	DB	02eH
	DB	029H
	DB	01fH
	DB	0ffH
	DB	00H
	DB	00H
	DB	00H
	DB	015H
	DB	00H
	DB	00H
	DB	00H
	DB	07H
	DB	00H
	DB	00H
	DB	00H
	DB	00H
	DB	00H
	DB	00H
	DB	00H
	DB	01H
	DB	00H
	DB	00H
	DB	00H
	DB	08H
	DB	038H
	DB	035H
	DB	030H
	DB	03eH
	DB	02eH
	DB	029H
	DB	01fH
	DB	0ffH
	DB	02eH
	DB	029H
	DB	01fH
	DB	0ffH
	DB	02eH
	DB	029H
	DB	01fH
	DB	0ffH
	DB	02eH
	DB	029H
	DB	01fH
	DB	0ffH
	DB	02eH
	DB	029H
	DB	01fH
	DB	0ffH
	DB	02eH
	DB	029H
	DB	01fH
	DB	0ffH
	DB	02eH
	DB	029H
	DB	01fH
	DB	0ffH
	DB	02eH
	DB	029H
	DB	01fH
	DB	0ffH
	DB	02eH
	DB	029H
	DB	01fH
	DB	0ffH
	DB	036H
	DB	034H
	DB	02eH
	DB	036H
	DB	00H
	DB	00H
	DB	00H
	DB	07H
	DB	00H
	DB	00H
	DB	00H
	DB	00H
	DB	00H
	DB	00H
	DB	00H
	DB	02H
	DB	043H
	DB	040H
	DB	039H
	DB	02dH
	DB	04cH
	DB	048H
	DB	03fH
	DB	0ebH
	DB	02eH
	DB	029H
	DB	01fH
	DB	0ffH
	DB	02eH
	DB	029H
	DB	01fH
	DB	0ffH
	DB	02eH
	DB	029H
	DB	01fH
	DB	0ffH
	DB	02eH
	DB	029H
	DB	01fH
	DB	0ffH
	DB	02eH
	DB	029H
	DB	01fH
	DB	0ffH
	DB	02eH
	DB	029H
	DB	01fH
	DB	0ffH
	DB	02eH
	DB	029H
	DB	01fH
	DB	0ffH
	DB	02eH
	DB	029H
	DB	01fH
	DB	0ffH
	DB	02eH
	DB	029H
	DB	01fH
	DB	0ffH
	DB	04eH
	DB	04aH
	DB	041H
	DB	0ebH
	DB	045H
	DB	042H
	DB	03aH
	DB	02cH
	DB	00H
	DB	00H
	DB	00H
	DB	01H
	DB	018H
	DB	017H
	DB	014H
	DB	07H
	DB	04eH
	DB	04aH
	DB	041H
	DB	0ceH
	DB	031H
	DB	02cH
	DB	023H
	DB	0ffH
	DB	02eH
	DB	029H
	DB	01fH
	DB	0ffH
	DB	02eH
	DB	029H
	DB	01fH
	DB	0ffH
	DB	02eH
	DB	029H
	DB	01fH
	DB	0ffH
	DB	02eH
	DB	029H
	DB	01fH
	DB	0ffH
	DB	02eH
	DB	029H
	DB	01fH
	DB	0ffH
	DB	02eH
	DB	029H
	DB	01fH
	DB	0ffH
	DB	02eH
	DB	029H
	DB	01fH
	DB	0ffH
	DB	02eH
	DB	029H
	DB	01fH
	DB	0ffH
	DB	02eH
	DB	029H
	DB	01fH
	DB	0ffH
	DB	031H
	DB	02cH
	DB	023H
	DB	0ffH
	DB	04eH
	DB	04aH
	DB	041H
	DB	0d0H
	DB	01cH
	DB	01bH
	DB	018H
	DB	06H
	DB	04eH
	DB	04aH
	DB	042H
	DB	060H
	DB	035H
	DB	031H
	DB	027H
	DB	0ffH
	DB	02eH
	DB	029H
	DB	01fH
	DB	0ffH
	DB	02eH
	DB	029H
	DB	01fH
	DB	0ffH
	DB	02eH
	DB	029H
	DB	01fH
	DB	0ffH
	DB	02eH
	DB	029H
	DB	01fH
	DB	0ffH
	DB	02eH
	DB	029H
	DB	01fH
	DB	0ffH
	DB	02eH
	DB	029H
	DB	01fH
	DB	0ffH
	DB	02eH
	DB	029H
	DB	01fH
	DB	0ffH
	DB	02eH
	DB	029H
	DB	01fH
	DB	0ffH
	DB	02eH
	DB	029H
	DB	01fH
	DB	0ffH
	DB	02eH
	DB	029H
	DB	01fH
	DB	0ffH
	DB	02eH
	DB	029H
	DB	01fH
	DB	0ffH
	DB	035H
	DB	031H
	DB	027H
	DB	0ffH
	DB	04eH
	DB	04aH
	DB	042H
	DB	060H
	DB	045H
	DB	040H
	DB	037H
	DB	0bbH
	DB	02eH
	DB	029H
	DB	01fH
	DB	0ffH
	DB	02eH
	DB	029H
	DB	01fH
	DB	0ffH
	DB	02eH
	DB	029H
	DB	01fH
	DB	0ffH
	DB	02eH
	DB	029H
	DB	01fH
	DB	0ffH
	DB	02cH
	DB	028H
	DB	01eH
	DB	0e8H
	DB	01bH
	DB	018H
	DB	012H
	DB	06cH
	DB	01H
	DB	01H
	DB	00H
	DB	03cH
	DB	01bH
	DB	018H
	DB	012H
	DB	06cH
	DB	02cH
	DB	028H
	DB	01eH
	DB	0e7H
	DB	02eH
	DB	029H
	DB	01fH
	DB	0ffH
	DB	02eH
	DB	029H
	DB	01fH
	DB	0ffH
	DB	02eH
	DB	029H
	DB	01fH
	DB	0ffH
	DB	02eH
	DB	029H
	DB	01fH
	DB	0ffH
	DB	045H
	DB	040H
	DB	037H
	DB	0b8H
	DB	038H
	DB	033H
	DB	02aH
	DB	0e6H
	DB	02eH
	DB	029H
	DB	01fH
	DB	0ffH
	DB	02eH
	DB	029H
	DB	01fH
	DB	0ffH
	DB	02eH
	DB	029H
	DB	01fH
	DB	0ffH
	DB	02eH
	DB	029H
	DB	01fH
	DB	0ffH
	DB	020H
	DB	01dH
	DB	017H
	DB	06cH
	DB	00H
	DB	00H
	DB	00H
	DB	032H
	DB	00H
	DB	00H
	DB	00H
	DB	02fH
	DB	00H
	DB	00H
	DB	00H
	DB	032H
	DB	01fH
	DB	01cH
	DB	016H
	DB	068H
	DB	02eH
	DB	029H
	DB	01fH
	DB	0ffH
	DB	02eH
	DB	029H
	DB	01fH
	DB	0ffH
	DB	02eH
	DB	029H
	DB	01fH
	DB	0ffH
	DB	02eH
	DB	029H
	DB	01fH
	DB	0ffH
	DB	038H
	DB	034H
	DB	02aH
	DB	0eaH
	DB	032H
	DB	02dH
	DB	023H
	DB	0f8H
	DB	02eH
	DB	029H
	DB	01fH
	DB	0ffH
	DB	02eH
	DB	029H
	DB	01fH
	DB	0ffH
	DB	02eH
	DB	029H
	DB	01fH
	DB	0ffH
	DB	02eH
	DB	029H
	DB	01fH
	DB	0ffH
	DB	013H
	DB	012H
	DB	0fH
	DB	038H
	DB	00H
	DB	00H
	DB	00H
	DB	022H
	DB	00H
	DB	00H
	DB	00H
	DB	01dH
	DB	00H
	DB	00H
	DB	00H
	DB	021H
	DB	08H
	DB	07H
	DB	07H
	DB	030H
	DB	02eH
	DB	029H
	DB	01fH
	DB	0ffH
	DB	02eH
	DB	029H
	DB	01fH
	DB	0ffH
	DB	02eH
	DB	029H
	DB	01fH
	DB	0ffH
	DB	02eH
	DB	029H
	DB	01fH
	DB	0ffH
	DB	031H
	DB	02cH
	DB	023H
	DB	0fdH
	DB	02eH
	DB	029H
	DB	01fH
	DB	0e7H
	DB	02eH
	DB	029H
	DB	01fH
	DB	0ffH
	DB	02eH
	DB	029H
	DB	01fH
	DB	0ffH
	DB	02eH
	DB	029H
	DB	01fH
	DB	0ffH
	DB	02eH
	DB	029H
	DB	01fH
	DB	0ffH
	DB	03bH
	DB	038H
	DB	032H
	DB	05dH
	DB	00H
	DB	00H
	DB	00H
	DB	014H
	DB	00H
	DB	00H
	DB	00H
	DB	0dH
	DB	00H
	DB	00H
	DB	00H
	DB	013H
	DB	03bH
	DB	038H
	DB	033H
	DB	057H
	DB	02eH
	DB	029H
	DB	01fH
	DB	0ffH
	DB	02eH
	DB	029H
	DB	01fH
	DB	0ffH
	DB	02eH
	DB	029H
	DB	01fH
	DB	0ffH
	DB	02eH
	DB	029H
	DB	01fH
	DB	0ffH
	DB	02dH
	DB	029H
	DB	01fH
	DB	0efH
	DB	02eH
	DB	02aH
	DB	021H
	DB	0bcH
	DB	02eH
	DB	029H
	DB	01fH
	DB	0ffH
	DB	02eH
	DB	029H
	DB	01fH
	DB	0ffH
	DB	02eH
	DB	029H
	DB	01fH
	DB	0ffH
	DB	02eH
	DB	029H
	DB	01fH
	DB	0ffH
	DB	049H
	DB	045H
	DB	03cH
	DB	0e4H
	DB	048H
	DB	045H
	DB	03dH
	DB	049H
	DB	00H
	DB	00H
	DB	00H
	DB	06H
	DB	048H
	DB	045H
	DB	03dH
	DB	048H
	DB	04aH
	DB	045H
	DB	03dH
	DB	0e2H
	DB	02eH
	DB	029H
	DB	01fH
	DB	0ffH
	DB	02eH
	DB	029H
	DB	01fH
	DB	0ffH
	DB	02eH
	DB	029H
	DB	01fH
	DB	0ffH
	DB	02eH
	DB	029H
	DB	01fH
	DB	0ffH
	DB	02dH
	DB	029H
	DB	020H
	DB	0c0H
	DB	02cH
	DB	029H
	DB	021H
	DB	06eH
	DB	02eH
	DB	029H
	DB	01fH
	DB	0ffH
	DB	02eH
	DB	029H
	DB	01fH
	DB	0ffH
	DB	02eH
	DB	029H
	DB	01fH
	DB	0ffH
	DB	02eH
	DB	029H
	DB	01fH
	DB	0ffH
	DB	033H
	DB	02eH
	DB	024H
	DB	0ffH
	DB	04bH
	DB	046H
	DB	03eH
	DB	0ffH
	DB	054H
	DB	050H
	DB	047H
	DB	0ffH
	DB	04bH
	DB	046H
	DB	03eH
	DB	0ffH
	DB	033H
	DB	02eH
	DB	024H
	DB	0ffH
	DB	02eH
	DB	029H
	DB	01fH
	DB	0ffH
	DB	02eH
	DB	029H
	DB	01fH
	DB	0ffH
	DB	02eH
	DB	029H
	DB	01fH
	DB	0ffH
	DB	02eH
	DB	029H
	DB	01fH
	DB	0ffH
	DB	02dH
	DB	02aH
	DB	022H
	DB	073H
	DB	04H
	DB	04H
	DB	03H
	DB	024H
	DB	02cH
	DB	027H
	DB	01dH
	DB	0d5H
	DB	02eH
	DB	029H
	DB	01fH
	DB	0ffH
	DB	02eH
	DB	029H
	DB	01fH
	DB	0ffH
	DB	02eH
	DB	029H
	DB	01fH
	DB	0ffH
	DB	02eH
	DB	029H
	DB	01fH
	DB	0ffH
	DB	02eH
	DB	029H
	DB	01fH
	DB	0ffH
	DB	02eH
	DB	029H
	DB	01fH
	DB	0ffH
	DB	02eH
	DB	029H
	DB	01fH
	DB	0ffH
	DB	02eH
	DB	029H
	DB	01fH
	DB	0ffH
	DB	02eH
	DB	029H
	DB	01fH
	DB	0ffH
	DB	02eH
	DB	029H
	DB	01fH
	DB	0ffH
	DB	02eH
	DB	029H
	DB	01fH
	DB	0ffH
	DB	02cH
	DB	027H
	DB	01eH
	DB	0d9H
	DB	06H
	DB	05H
	DB	05H
	DB	025H
	DB	00H
	DB	00H
	DB	00H
	DB	01bH
	DB	019H
	DB	016H
	DB	012H
	DB	048H
	DB	02dH
	DB	028H
	DB	01eH
	DB	0eeH
	DB	02eH
	DB	029H
	DB	01fH
	DB	0ffH
	DB	02eH
	DB	029H
	DB	01fH
	DB	0ffH
	DB	02eH
	DB	029H
	DB	01fH
	DB	0ffH
	DB	02eH
	DB	029H
	DB	01fH
	DB	0ffH
	DB	02eH
	DB	029H
	DB	01fH
	DB	0ffH
	DB	02eH
	DB	029H
	DB	01fH
	DB	0ffH
	DB	02eH
	DB	029H
	DB	01fH
	DB	0ffH
	DB	02eH
	DB	029H
	DB	01fH
	DB	0ffH
	DB	02eH
	DB	029H
	DB	01fH
	DB	0ffH
	DB	02dH
	DB	028H
	DB	01eH
	DB	0efH
	DB	019H
	DB	017H
	DB	012H
	DB	04bH
	DB	00H
	DB	00H
	DB	00H
	DB	01bH
	DB	00H
	DB	00H
	DB	00H
	DB	013H
	DB	00H
	DB	00H
	DB	00H
	DB	023H
	DB	016H
	DB	013H
	DB	010H
	DB	04dH
	DB	02cH
	DB	027H
	DB	01dH
	DB	0dbH
	DB	02eH
	DB	029H
	DB	01fH
	DB	0ffH
	DB	02eH
	DB	029H
	DB	01fH
	DB	0ffH
	DB	02eH
	DB	029H
	DB	01fH
	DB	0ffH
	DB	02eH
	DB	029H
	DB	01fH
	DB	0ffH
	DB	02eH
	DB	029H
	DB	01fH
	DB	0ffH
	DB	02eH
	DB	029H
	DB	01fH
	DB	0ffH
	DB	02eH
	DB	029H
	DB	01fH
	DB	0ffH
	DB	02cH
	DB	027H
	DB	01eH
	DB	0ddH
	DB	018H
	DB	016H
	DB	011H
	DB	053H
	DB	00H
	DB	00H
	DB	00H
	DB	023H
	DB	00H
	DB	00H
	DB	00H
	DB	013H
	DB	00H
	DB	00H
	DB	00H
	DB	0aH
	DB	00H
	DB	00H
	DB	00H
	DB	017H
	DB	00H
	DB	00H
	DB	00H
	DB	026H
	DB	04H
	DB	04H
	DB	03H
	DB	035H
	DB	021H
	DB	01eH
	DB	016H
	DB	081H
	DB	02aH
	DB	026H
	DB	01cH
	DB	0cbH
	DB	02dH
	DB	028H
	DB	01eH
	DB	0edH
	DB	02eH
	DB	029H
	DB	01fH
	DB	0feH
	DB	02dH
	DB	028H
	DB	01fH
	DB	0f4H
	DB	02aH
	DB	025H
	DB	01cH
	DB	0c7H
	DB	021H
	DB	01eH
	DB	016H
	DB	083H
	DB	06H
	DB	05H
	DB	04H
	DB	037H
	DB	00H
	DB	00H
	DB	00H
	DB	026H
	DB	00H
	DB	00H
	DB	00H
	DB	018H
	DB	00H
	DB	00H
	DB	00H
	DB	0bH
	DB	00H
	DB	00H
	DB	00H
	DB	04H
	DB	00H
	DB	00H
	DB	00H
	DB	0cH
	DB	00H
	DB	00H
	DB	00H
	DB	017H
	DB	00H
	DB	00H
	DB	00H
	DB	023H
	DB	00H
	DB	00H
	DB	00H
	DB	02dH
	DB	00H
	DB	00H
	DB	00H
	DB	033H
	DB	00H
	DB	00H
	DB	00H
	DB	036H
	DB	00H
	DB	00H
	DB	00H
	DB	037H
	DB	00H
	DB	00H
	DB	00H
	DB	036H
	DB	00H
	DB	00H
	DB	00H
	DB	033H
	DB	00H
	DB	00H
	DB	00H
	DB	02dH
	DB	00H
	DB	00H
	DB	00H
	DB	024H
	DB	00H
	DB	00H
	DB	00H
	DB	018H
	DB	00H
	DB	00H
	DB	00H
	DB	0cH
	DB	00H
	DB	00H
	DB	00H
	DB	04H
	DB	00H
	DB	00H
	DB	00H
	DB	01H
	DB	00H
	DB	00H
	DB	00H
	DB	04H
	DB	00H
	DB	00H
	DB	00H
	DB	0bH
	DB	00H
	DB	00H
	DB	00H
	DB	013H
	DB	00H
	DB	00H
	DB	00H
	DB	01cH
	DB	00H
	DB	00H
	DB	00H
	DB	023H
	DB	00H
	DB	00H
	DB	00H
	DB	027H
	DB	00H
	DB	00H
	DB	00H
	DB	029H
	DB	00H
	DB	00H
	DB	00H
	DB	027H
	DB	00H
	DB	00H
	DB	00H
	DB	023H
	DB	00H
	DB	00H
	DB	00H
	DB	01cH
	DB	00H
	DB	00H
	DB	00H
	DB	013H
	DB	00H
	DB	00H
	DB	00H
	DB	0bH
	DB	00H
	DB	00H
	DB	00H
	DB	05H
	DB	00H
	DB	00H
	DB	00H
	DB	01H
CONST	ENDS
END
