; Listing generated by Microsoft (R) Optimizing Compiler Version 19.25.28614.0 

	TITLE	E:\skull\TouchGFX\Projects\iioss\stm32f429_touchgfx_iios\Src\generated\images\src\__designer\Blue_Clocks_Hands_clock_standard_second_hand.cpp
	.686P
	.XMM
	include listing.inc
	.model	flat

INCLUDELIB MSVCRTD
INCLUDELIB OLDNAMES

PUBLIC	?_blue_clocks_hands_clock_standard_second_hand@@3QBEB ; _blue_clocks_hands_clock_standard_second_hand
CONST	SEGMENT
?_blue_clocks_hands_clock_standard_second_hand@@3QBEB DB 0ffH ; _blue_clocks_hands_clock_standard_second_hand
	DB	0ffH
	DB	0ffH
	DB	00H
	DB	0ffH
	DB	0ffH
	DB	0ffH
	DB	00H
	DB	0ffH
	DB	0ffH
	DB	0ffH
	DB	00H
	DB	0ffH
	DB	0ffH
	DB	0ffH
	DB	00H
	DB	0ffH
	DB	0ffH
	DB	0ffH
	DB	00H
	DB	0ffH
	DB	0ffH
	DB	0ffH
	DB	00H
	DB	0ffH
	DB	0ffH
	DB	0ffH
	DB	00H
	DB	00H
	DB	00H
	DB	00H
	DB	01H
	DB	00H
	DB	00H
	DB	00H
	DB	02H
	DB	00H
	DB	03bH
	DB	0fbH
	DB	087H
	DB	00H
	DB	03cH
	DB	0ffH
	DB	0f3H
	DB	00H
	DB	03bH
	DB	0fbH
	DB	087H
	DB	00H
	DB	00H
	DB	00H
	DB	02H
	DB	00H
	DB	00H
	DB	00H
	DB	01H
	DB	00H
	DB	00H
	DB	00H
	DB	02H
	DB	00H
	DB	00H
	DB	00H
	DB	07H
	DB	00H
	DB	03cH
	DB	0ffH
	DB	0ffH
	DB	00H
	DB	03cH
	DB	0ffH
	DB	0ffH
	DB	00H
	DB	03cH
	DB	0ffH
	DB	0ffH
	DB	00H
	DB	00H
	DB	00H
	DB	07H
	DB	00H
	DB	00H
	DB	00H
	DB	02H
	DB	00H
	DB	00H
	DB	00H
	DB	05H
	DB	00H
	DB	00H
	DB	00H
	DB	0fH
	DB	00H
	DB	03cH
	DB	0ffH
	DB	0ffH
	DB	00H
	DB	03cH
	DB	0ffH
	DB	0ffH
	DB	00H
	DB	03cH
	DB	0ffH
	DB	0ffH
	DB	00H
	DB	00H
	DB	00H
	DB	0fH
	DB	00H
	DB	00H
	DB	00H
	DB	05H
	DB	00H
	DB	00H
	DB	00H
	DB	07H
	DB	00H
	DB	00H
	DB	00H
	DB	016H
	DB	00H
	DB	03cH
	DB	0ffH
	DB	0ffH
	DB	00H
	DB	03cH
	DB	0ffH
	DB	0ffH
	DB	00H
	DB	03cH
	DB	0ffH
	DB	0ffH
	DB	00H
	DB	00H
	DB	00H
	DB	016H
	DB	00H
	DB	00H
	DB	00H
	DB	07H
	DB	00H
	DB	00H
	DB	00H
	DB	09H
	DB	00H
	DB	00H
	DB	00H
	DB	01aH
	DB	00H
	DB	03cH
	DB	0ffH
	DB	0ffH
	DB	00H
	DB	03cH
	DB	0ffH
	DB	0ffH
	DB	00H
	DB	03cH
	DB	0ffH
	DB	0ffH
	DB	00H
	DB	00H
	DB	00H
	DB	01aH
	DB	00H
	DB	00H
	DB	00H
	DB	09H
	DB	00H
	DB	00H
	DB	00H
	DB	09H
	DB	00H
	DB	00H
	DB	00H
	DB	01bH
	DB	00H
	DB	03cH
	DB	0ffH
	DB	0ffH
	DB	00H
	DB	03cH
	DB	0ffH
	DB	0ffH
	DB	00H
	DB	03cH
	DB	0ffH
	DB	0ffH
	DB	00H
	DB	00H
	DB	00H
	DB	01bH
	DB	00H
	DB	00H
	DB	00H
	DB	09H
	DB	00H
	DB	00H
	DB	00H
	DB	09H
	DB	00H
	DB	00H
	DB	00H
	DB	01bH
	DB	00H
	DB	03cH
	DB	0ffH
	DB	0ffH
	DB	00H
	DB	03cH
	DB	0ffH
	DB	0ffH
	DB	00H
	DB	03cH
	DB	0ffH
	DB	0ffH
	DB	00H
	DB	00H
	DB	00H
	DB	01bH
	DB	00H
	DB	00H
	DB	00H
	DB	09H
	DB	00H
	DB	00H
	DB	00H
	DB	09H
	DB	00H
	DB	00H
	DB	00H
	DB	01bH
	DB	00H
	DB	03cH
	DB	0ffH
	DB	0ffH
	DB	00H
	DB	03cH
	DB	0ffH
	DB	0ffH
	DB	00H
	DB	03cH
	DB	0ffH
	DB	0ffH
	DB	00H
	DB	00H
	DB	00H
	DB	01bH
	DB	00H
	DB	00H
	DB	00H
	DB	09H
	DB	00H
	DB	00H
	DB	00H
	DB	09H
	DB	00H
	DB	00H
	DB	00H
	DB	01bH
	DB	00H
	DB	03cH
	DB	0ffH
	DB	0ffH
	DB	00H
	DB	03cH
	DB	0ffH
	DB	0ffH
	DB	00H
	DB	03cH
	DB	0ffH
	DB	0ffH
	DB	00H
	DB	00H
	DB	00H
	DB	01bH
	DB	00H
	DB	00H
	DB	00H
	DB	09H
	DB	00H
	DB	00H
	DB	00H
	DB	09H
	DB	00H
	DB	00H
	DB	00H
	DB	01bH
	DB	00H
	DB	03cH
	DB	0ffH
	DB	0ffH
	DB	00H
	DB	03cH
	DB	0ffH
	DB	0ffH
	DB	00H
	DB	03cH
	DB	0ffH
	DB	0ffH
	DB	00H
	DB	00H
	DB	00H
	DB	01bH
	DB	00H
	DB	00H
	DB	00H
	DB	09H
	DB	00H
	DB	00H
	DB	00H
	DB	09H
	DB	00H
	DB	00H
	DB	00H
	DB	01bH
	DB	00H
	DB	03cH
	DB	0ffH
	DB	0ffH
	DB	00H
	DB	03cH
	DB	0ffH
	DB	0ffH
	DB	00H
	DB	03cH
	DB	0ffH
	DB	0ffH
	DB	00H
	DB	00H
	DB	00H
	DB	01bH
	DB	00H
	DB	00H
	DB	00H
	DB	09H
	DB	00H
	DB	00H
	DB	00H
	DB	09H
	DB	00H
	DB	00H
	DB	00H
	DB	01bH
	DB	00H
	DB	03cH
	DB	0ffH
	DB	0ffH
	DB	00H
	DB	03cH
	DB	0ffH
	DB	0ffH
	DB	00H
	DB	03cH
	DB	0ffH
	DB	0ffH
	DB	00H
	DB	00H
	DB	00H
	DB	01bH
	DB	00H
	DB	00H
	DB	00H
	DB	09H
	DB	00H
	DB	00H
	DB	00H
	DB	09H
	DB	00H
	DB	00H
	DB	00H
	DB	01bH
	DB	00H
	DB	03cH
	DB	0ffH
	DB	0ffH
	DB	00H
	DB	03cH
	DB	0ffH
	DB	0ffH
	DB	00H
	DB	03cH
	DB	0ffH
	DB	0ffH
	DB	00H
	DB	00H
	DB	00H
	DB	01bH
	DB	00H
	DB	00H
	DB	00H
	DB	09H
	DB	00H
	DB	00H
	DB	00H
	DB	09H
	DB	00H
	DB	00H
	DB	00H
	DB	01bH
	DB	00H
	DB	03cH
	DB	0ffH
	DB	0ffH
	DB	00H
	DB	03cH
	DB	0ffH
	DB	0ffH
	DB	00H
	DB	03cH
	DB	0ffH
	DB	0ffH
	DB	00H
	DB	00H
	DB	00H
	DB	01bH
	DB	00H
	DB	00H
	DB	00H
	DB	09H
	DB	00H
	DB	00H
	DB	00H
	DB	09H
	DB	00H
	DB	00H
	DB	00H
	DB	01bH
	DB	00H
	DB	03cH
	DB	0ffH
	DB	0ffH
	DB	00H
	DB	03cH
	DB	0ffH
	DB	0ffH
	DB	00H
	DB	03cH
	DB	0ffH
	DB	0ffH
	DB	00H
	DB	00H
	DB	00H
	DB	01bH
	DB	00H
	DB	00H
	DB	00H
	DB	09H
	DB	00H
	DB	00H
	DB	00H
	DB	09H
	DB	00H
	DB	00H
	DB	00H
	DB	01bH
	DB	00H
	DB	03cH
	DB	0ffH
	DB	0ffH
	DB	00H
	DB	03cH
	DB	0ffH
	DB	0ffH
	DB	00H
	DB	03cH
	DB	0ffH
	DB	0ffH
	DB	00H
	DB	00H
	DB	00H
	DB	01bH
	DB	00H
	DB	00H
	DB	00H
	DB	09H
	DB	00H
	DB	00H
	DB	00H
	DB	09H
	DB	00H
	DB	00H
	DB	00H
	DB	01bH
	DB	00H
	DB	03cH
	DB	0ffH
	DB	0ffH
	DB	00H
	DB	03cH
	DB	0ffH
	DB	0ffH
	DB	00H
	DB	03cH
	DB	0ffH
	DB	0ffH
	DB	00H
	DB	00H
	DB	00H
	DB	01bH
	DB	00H
	DB	00H
	DB	00H
	DB	09H
	DB	00H
	DB	00H
	DB	00H
	DB	09H
	DB	00H
	DB	00H
	DB	00H
	DB	01bH
	DB	00H
	DB	03cH
	DB	0ffH
	DB	0ffH
	DB	00H
	DB	03cH
	DB	0ffH
	DB	0ffH
	DB	00H
	DB	03cH
	DB	0ffH
	DB	0ffH
	DB	00H
	DB	00H
	DB	00H
	DB	01bH
	DB	00H
	DB	00H
	DB	00H
	DB	09H
	DB	00H
	DB	00H
	DB	00H
	DB	09H
	DB	00H
	DB	00H
	DB	00H
	DB	01bH
	DB	00H
	DB	03cH
	DB	0ffH
	DB	0ffH
	DB	00H
	DB	03cH
	DB	0ffH
	DB	0ffH
	DB	00H
	DB	03cH
	DB	0ffH
	DB	0ffH
	DB	00H
	DB	00H
	DB	00H
	DB	01bH
	DB	00H
	DB	00H
	DB	00H
	DB	09H
	DB	00H
	DB	00H
	DB	00H
	DB	09H
	DB	00H
	DB	00H
	DB	00H
	DB	01bH
	DB	00H
	DB	03cH
	DB	0ffH
	DB	0ffH
	DB	00H
	DB	03cH
	DB	0ffH
	DB	0ffH
	DB	00H
	DB	03cH
	DB	0ffH
	DB	0ffH
	DB	00H
	DB	00H
	DB	00H
	DB	01bH
	DB	00H
	DB	00H
	DB	00H
	DB	09H
	DB	00H
	DB	00H
	DB	00H
	DB	09H
	DB	00H
	DB	00H
	DB	00H
	DB	01bH
	DB	00H
	DB	03cH
	DB	0ffH
	DB	0ffH
	DB	00H
	DB	03cH
	DB	0ffH
	DB	0ffH
	DB	00H
	DB	03cH
	DB	0ffH
	DB	0ffH
	DB	00H
	DB	00H
	DB	00H
	DB	01bH
	DB	00H
	DB	00H
	DB	00H
	DB	09H
	DB	00H
	DB	00H
	DB	00H
	DB	09H
	DB	00H
	DB	00H
	DB	00H
	DB	01bH
	DB	00H
	DB	03cH
	DB	0ffH
	DB	0ffH
	DB	00H
	DB	03cH
	DB	0ffH
	DB	0ffH
	DB	00H
	DB	03cH
	DB	0ffH
	DB	0ffH
	DB	00H
	DB	00H
	DB	00H
	DB	01bH
	DB	00H
	DB	00H
	DB	00H
	DB	09H
	DB	00H
	DB	00H
	DB	00H
	DB	09H
	DB	00H
	DB	00H
	DB	00H
	DB	01bH
	DB	00H
	DB	03cH
	DB	0ffH
	DB	0ffH
	DB	00H
	DB	03cH
	DB	0ffH
	DB	0ffH
	DB	00H
	DB	03cH
	DB	0ffH
	DB	0ffH
	DB	00H
	DB	00H
	DB	00H
	DB	01bH
	DB	00H
	DB	00H
	DB	00H
	DB	09H
	DB	00H
	DB	00H
	DB	00H
	DB	09H
	DB	00H
	DB	00H
	DB	00H
	DB	01bH
	DB	00H
	DB	03cH
	DB	0ffH
	DB	0ffH
	DB	00H
	DB	03cH
	DB	0ffH
	DB	0ffH
	DB	00H
	DB	03cH
	DB	0ffH
	DB	0ffH
	DB	00H
	DB	00H
	DB	00H
	DB	01bH
	DB	00H
	DB	00H
	DB	00H
	DB	09H
	DB	00H
	DB	00H
	DB	00H
	DB	09H
	DB	00H
	DB	00H
	DB	00H
	DB	01bH
	DB	00H
	DB	03cH
	DB	0ffH
	DB	0ffH
	DB	00H
	DB	03cH
	DB	0ffH
	DB	0ffH
	DB	00H
	DB	03cH
	DB	0ffH
	DB	0ffH
	DB	00H
	DB	00H
	DB	00H
	DB	01bH
	DB	00H
	DB	00H
	DB	00H
	DB	09H
	DB	00H
	DB	00H
	DB	00H
	DB	09H
	DB	00H
	DB	00H
	DB	00H
	DB	01bH
	DB	00H
	DB	03cH
	DB	0ffH
	DB	0ffH
	DB	00H
	DB	03cH
	DB	0ffH
	DB	0ffH
	DB	00H
	DB	03cH
	DB	0ffH
	DB	0ffH
	DB	00H
	DB	00H
	DB	00H
	DB	01bH
	DB	00H
	DB	00H
	DB	00H
	DB	09H
	DB	00H
	DB	00H
	DB	00H
	DB	09H
	DB	00H
	DB	00H
	DB	00H
	DB	01bH
	DB	00H
	DB	03cH
	DB	0ffH
	DB	0ffH
	DB	00H
	DB	03cH
	DB	0ffH
	DB	0ffH
	DB	00H
	DB	03cH
	DB	0ffH
	DB	0ffH
	DB	00H
	DB	00H
	DB	00H
	DB	01bH
	DB	00H
	DB	00H
	DB	00H
	DB	09H
	DB	00H
	DB	00H
	DB	00H
	DB	09H
	DB	00H
	DB	00H
	DB	00H
	DB	01bH
	DB	00H
	DB	03cH
	DB	0ffH
	DB	0ffH
	DB	00H
	DB	03cH
	DB	0ffH
	DB	0ffH
	DB	00H
	DB	03cH
	DB	0ffH
	DB	0ffH
	DB	00H
	DB	00H
	DB	00H
	DB	01bH
	DB	00H
	DB	00H
	DB	00H
	DB	09H
	DB	00H
	DB	00H
	DB	00H
	DB	09H
	DB	00H
	DB	00H
	DB	00H
	DB	01bH
	DB	00H
	DB	03cH
	DB	0ffH
	DB	0ffH
	DB	00H
	DB	03cH
	DB	0ffH
	DB	0ffH
	DB	00H
	DB	03cH
	DB	0ffH
	DB	0ffH
	DB	00H
	DB	00H
	DB	00H
	DB	01bH
	DB	00H
	DB	00H
	DB	00H
	DB	09H
	DB	00H
	DB	00H
	DB	00H
	DB	09H
	DB	00H
	DB	00H
	DB	00H
	DB	01bH
	DB	00H
	DB	03cH
	DB	0ffH
	DB	0ffH
	DB	00H
	DB	03cH
	DB	0ffH
	DB	0ffH
	DB	00H
	DB	03cH
	DB	0ffH
	DB	0ffH
	DB	00H
	DB	00H
	DB	00H
	DB	01bH
	DB	00H
	DB	00H
	DB	00H
	DB	09H
	DB	00H
	DB	00H
	DB	00H
	DB	09H
	DB	00H
	DB	00H
	DB	00H
	DB	01bH
	DB	00H
	DB	03cH
	DB	0ffH
	DB	0ffH
	DB	00H
	DB	03cH
	DB	0ffH
	DB	0ffH
	DB	00H
	DB	03cH
	DB	0ffH
	DB	0ffH
	DB	00H
	DB	00H
	DB	00H
	DB	01bH
	DB	00H
	DB	00H
	DB	00H
	DB	09H
	DB	00H
	DB	00H
	DB	00H
	DB	09H
	DB	00H
	DB	00H
	DB	00H
	DB	01bH
	DB	00H
	DB	03cH
	DB	0ffH
	DB	0ffH
	DB	00H
	DB	03cH
	DB	0ffH
	DB	0ffH
	DB	00H
	DB	03cH
	DB	0ffH
	DB	0ffH
	DB	00H
	DB	00H
	DB	00H
	DB	01bH
	DB	00H
	DB	00H
	DB	00H
	DB	09H
	DB	00H
	DB	00H
	DB	00H
	DB	09H
	DB	00H
	DB	00H
	DB	00H
	DB	01bH
	DB	00H
	DB	03cH
	DB	0ffH
	DB	0ffH
	DB	00H
	DB	03cH
	DB	0ffH
	DB	0ffH
	DB	00H
	DB	03cH
	DB	0ffH
	DB	0ffH
	DB	00H
	DB	00H
	DB	00H
	DB	01bH
	DB	00H
	DB	00H
	DB	00H
	DB	09H
	DB	00H
	DB	00H
	DB	00H
	DB	09H
	DB	00H
	DB	00H
	DB	00H
	DB	01bH
	DB	00H
	DB	03cH
	DB	0ffH
	DB	0ffH
	DB	00H
	DB	03cH
	DB	0ffH
	DB	0ffH
	DB	00H
	DB	03cH
	DB	0ffH
	DB	0ffH
	DB	00H
	DB	00H
	DB	00H
	DB	01bH
	DB	00H
	DB	00H
	DB	00H
	DB	09H
	DB	00H
	DB	00H
	DB	00H
	DB	09H
	DB	00H
	DB	00H
	DB	00H
	DB	01bH
	DB	00H
	DB	03cH
	DB	0ffH
	DB	0ffH
	DB	00H
	DB	03cH
	DB	0ffH
	DB	0ffH
	DB	00H
	DB	03cH
	DB	0ffH
	DB	0ffH
	DB	00H
	DB	00H
	DB	00H
	DB	01bH
	DB	00H
	DB	00H
	DB	00H
	DB	09H
	DB	00H
	DB	00H
	DB	00H
	DB	09H
	DB	00H
	DB	00H
	DB	00H
	DB	01bH
	DB	00H
	DB	03cH
	DB	0ffH
	DB	0ffH
	DB	00H
	DB	03cH
	DB	0ffH
	DB	0ffH
	DB	00H
	DB	03cH
	DB	0ffH
	DB	0ffH
	DB	00H
	DB	00H
	DB	00H
	DB	01bH
	DB	00H
	DB	00H
	DB	00H
	DB	09H
	DB	00H
	DB	00H
	DB	00H
	DB	09H
	DB	00H
	DB	00H
	DB	00H
	DB	01bH
	DB	00H
	DB	03cH
	DB	0ffH
	DB	0ffH
	DB	00H
	DB	03cH
	DB	0ffH
	DB	0ffH
	DB	00H
	DB	03cH
	DB	0ffH
	DB	0ffH
	DB	00H
	DB	00H
	DB	00H
	DB	01bH
	DB	00H
	DB	00H
	DB	00H
	DB	09H
	DB	00H
	DB	00H
	DB	00H
	DB	09H
	DB	00H
	DB	00H
	DB	00H
	DB	01bH
	DB	00H
	DB	03cH
	DB	0ffH
	DB	0ffH
	DB	00H
	DB	03cH
	DB	0ffH
	DB	0ffH
	DB	00H
	DB	03cH
	DB	0ffH
	DB	0ffH
	DB	00H
	DB	00H
	DB	00H
	DB	01bH
	DB	00H
	DB	00H
	DB	00H
	DB	09H
	DB	00H
	DB	00H
	DB	00H
	DB	09H
	DB	00H
	DB	00H
	DB	00H
	DB	01bH
	DB	00H
	DB	03cH
	DB	0ffH
	DB	0ffH
	DB	00H
	DB	03cH
	DB	0ffH
	DB	0ffH
	DB	00H
	DB	03cH
	DB	0ffH
	DB	0ffH
	DB	00H
	DB	00H
	DB	00H
	DB	01bH
	DB	00H
	DB	00H
	DB	00H
	DB	09H
	DB	00H
	DB	00H
	DB	00H
	DB	09H
	DB	00H
	DB	00H
	DB	00H
	DB	01bH
	DB	00H
	DB	03cH
	DB	0ffH
	DB	0ffH
	DB	00H
	DB	03cH
	DB	0ffH
	DB	0ffH
	DB	00H
	DB	03cH
	DB	0ffH
	DB	0ffH
	DB	00H
	DB	00H
	DB	00H
	DB	01bH
	DB	00H
	DB	00H
	DB	00H
	DB	09H
	DB	00H
	DB	00H
	DB	00H
	DB	09H
	DB	00H
	DB	00H
	DB	00H
	DB	01bH
	DB	00H
	DB	03cH
	DB	0ffH
	DB	0ffH
	DB	00H
	DB	03cH
	DB	0ffH
	DB	0ffH
	DB	00H
	DB	03cH
	DB	0ffH
	DB	0ffH
	DB	00H
	DB	00H
	DB	00H
	DB	01bH
	DB	00H
	DB	00H
	DB	00H
	DB	09H
	DB	00H
	DB	00H
	DB	00H
	DB	09H
	DB	00H
	DB	00H
	DB	00H
	DB	01bH
	DB	00H
	DB	03cH
	DB	0ffH
	DB	0ffH
	DB	00H
	DB	03cH
	DB	0ffH
	DB	0ffH
	DB	00H
	DB	03cH
	DB	0ffH
	DB	0ffH
	DB	00H
	DB	00H
	DB	00H
	DB	01bH
	DB	00H
	DB	00H
	DB	00H
	DB	09H
	DB	00H
	DB	00H
	DB	00H
	DB	09H
	DB	00H
	DB	00H
	DB	00H
	DB	01bH
	DB	00H
	DB	03cH
	DB	0ffH
	DB	0ffH
	DB	00H
	DB	03cH
	DB	0ffH
	DB	0ffH
	DB	00H
	DB	03cH
	DB	0ffH
	DB	0ffH
	DB	00H
	DB	00H
	DB	00H
	DB	01bH
	DB	00H
	DB	00H
	DB	00H
	DB	09H
	DB	00H
	DB	00H
	DB	00H
	DB	09H
	DB	00H
	DB	00H
	DB	00H
	DB	01bH
	DB	00H
	DB	03cH
	DB	0ffH
	DB	0ffH
	DB	00H
	DB	03cH
	DB	0ffH
	DB	0ffH
	DB	00H
	DB	03cH
	DB	0ffH
	DB	0ffH
	DB	00H
	DB	00H
	DB	00H
	DB	01bH
	DB	00H
	DB	00H
	DB	00H
	DB	09H
	DB	00H
	DB	00H
	DB	00H
	DB	09H
	DB	00H
	DB	00H
	DB	00H
	DB	01bH
	DB	00H
	DB	03cH
	DB	0ffH
	DB	0ffH
	DB	00H
	DB	03cH
	DB	0ffH
	DB	0ffH
	DB	00H
	DB	03cH
	DB	0ffH
	DB	0ffH
	DB	00H
	DB	00H
	DB	00H
	DB	01bH
	DB	00H
	DB	00H
	DB	00H
	DB	09H
	DB	00H
	DB	00H
	DB	00H
	DB	09H
	DB	00H
	DB	00H
	DB	00H
	DB	01bH
	DB	00H
	DB	03cH
	DB	0ffH
	DB	0ffH
	DB	00H
	DB	03cH
	DB	0ffH
	DB	0ffH
	DB	00H
	DB	03cH
	DB	0ffH
	DB	0ffH
	DB	00H
	DB	00H
	DB	00H
	DB	01bH
	DB	00H
	DB	00H
	DB	00H
	DB	09H
	DB	00H
	DB	00H
	DB	00H
	DB	09H
	DB	00H
	DB	00H
	DB	00H
	DB	01bH
	DB	00H
	DB	03cH
	DB	0ffH
	DB	0ffH
	DB	00H
	DB	03cH
	DB	0ffH
	DB	0ffH
	DB	00H
	DB	03cH
	DB	0ffH
	DB	0ffH
	DB	00H
	DB	00H
	DB	00H
	DB	01bH
	DB	00H
	DB	00H
	DB	00H
	DB	09H
	DB	00H
	DB	00H
	DB	00H
	DB	09H
	DB	00H
	DB	00H
	DB	00H
	DB	01bH
	DB	00H
	DB	03cH
	DB	0ffH
	DB	0ffH
	DB	00H
	DB	03cH
	DB	0ffH
	DB	0ffH
	DB	00H
	DB	03cH
	DB	0ffH
	DB	0ffH
	DB	00H
	DB	00H
	DB	00H
	DB	01bH
	DB	00H
	DB	00H
	DB	00H
	DB	09H
	DB	00H
	DB	00H
	DB	00H
	DB	09H
	DB	00H
	DB	00H
	DB	00H
	DB	01bH
	DB	00H
	DB	03cH
	DB	0ffH
	DB	0ffH
	DB	00H
	DB	03cH
	DB	0ffH
	DB	0ffH
	DB	00H
	DB	03cH
	DB	0ffH
	DB	0ffH
	DB	00H
	DB	00H
	DB	00H
	DB	01bH
	DB	00H
	DB	00H
	DB	00H
	DB	09H
	DB	00H
	DB	00H
	DB	00H
	DB	09H
	DB	00H
	DB	00H
	DB	00H
	DB	01bH
	DB	00H
	DB	03cH
	DB	0ffH
	DB	0ffH
	DB	00H
	DB	03cH
	DB	0ffH
	DB	0ffH
	DB	00H
	DB	03cH
	DB	0ffH
	DB	0ffH
	DB	00H
	DB	00H
	DB	00H
	DB	01bH
	DB	00H
	DB	00H
	DB	00H
	DB	09H
	DB	00H
	DB	00H
	DB	00H
	DB	09H
	DB	00H
	DB	00H
	DB	00H
	DB	01bH
	DB	00H
	DB	03cH
	DB	0ffH
	DB	0ffH
	DB	00H
	DB	03cH
	DB	0ffH
	DB	0ffH
	DB	00H
	DB	03cH
	DB	0ffH
	DB	0ffH
	DB	00H
	DB	00H
	DB	00H
	DB	01bH
	DB	00H
	DB	00H
	DB	00H
	DB	09H
	DB	00H
	DB	00H
	DB	00H
	DB	09H
	DB	00H
	DB	00H
	DB	00H
	DB	01bH
	DB	00H
	DB	03cH
	DB	0ffH
	DB	0ffH
	DB	00H
	DB	03cH
	DB	0ffH
	DB	0ffH
	DB	00H
	DB	03cH
	DB	0ffH
	DB	0ffH
	DB	00H
	DB	00H
	DB	00H
	DB	01bH
	DB	00H
	DB	00H
	DB	00H
	DB	09H
	DB	00H
	DB	00H
	DB	00H
	DB	09H
	DB	00H
	DB	00H
	DB	00H
	DB	01bH
	DB	00H
	DB	03cH
	DB	0ffH
	DB	0ffH
	DB	00H
	DB	03cH
	DB	0ffH
	DB	0ffH
	DB	00H
	DB	03cH
	DB	0ffH
	DB	0ffH
	DB	00H
	DB	00H
	DB	00H
	DB	01bH
	DB	00H
	DB	00H
	DB	00H
	DB	09H
	DB	00H
	DB	00H
	DB	00H
	DB	09H
	DB	00H
	DB	00H
	DB	00H
	DB	01bH
	DB	00H
	DB	03cH
	DB	0ffH
	DB	0ffH
	DB	00H
	DB	03cH
	DB	0ffH
	DB	0ffH
	DB	00H
	DB	03cH
	DB	0ffH
	DB	0ffH
	DB	00H
	DB	00H
	DB	00H
	DB	01bH
	DB	00H
	DB	00H
	DB	00H
	DB	09H
	DB	00H
	DB	00H
	DB	00H
	DB	09H
	DB	00H
	DB	00H
	DB	00H
	DB	01bH
	DB	00H
	DB	03cH
	DB	0ffH
	DB	0ffH
	DB	00H
	DB	03cH
	DB	0ffH
	DB	0ffH
	DB	00H
	DB	03cH
	DB	0ffH
	DB	0ffH
	DB	00H
	DB	00H
	DB	00H
	DB	01bH
	DB	00H
	DB	00H
	DB	00H
	DB	09H
	DB	00H
	DB	00H
	DB	00H
	DB	09H
	DB	00H
	DB	00H
	DB	00H
	DB	01bH
	DB	00H
	DB	03cH
	DB	0ffH
	DB	0ffH
	DB	00H
	DB	03cH
	DB	0ffH
	DB	0ffH
	DB	00H
	DB	03cH
	DB	0ffH
	DB	0ffH
	DB	00H
	DB	00H
	DB	00H
	DB	01bH
	DB	00H
	DB	00H
	DB	00H
	DB	09H
	DB	00H
	DB	00H
	DB	00H
	DB	09H
	DB	00H
	DB	00H
	DB	00H
	DB	01bH
	DB	00H
	DB	03cH
	DB	0ffH
	DB	0ffH
	DB	00H
	DB	03cH
	DB	0ffH
	DB	0ffH
	DB	00H
	DB	03cH
	DB	0ffH
	DB	0ffH
	DB	00H
	DB	00H
	DB	00H
	DB	01bH
	DB	00H
	DB	00H
	DB	00H
	DB	09H
	DB	00H
	DB	00H
	DB	00H
	DB	09H
	DB	00H
	DB	00H
	DB	00H
	DB	01bH
	DB	00H
	DB	03cH
	DB	0ffH
	DB	0ffH
	DB	00H
	DB	03cH
	DB	0ffH
	DB	0ffH
	DB	00H
	DB	03cH
	DB	0ffH
	DB	0ffH
	DB	00H
	DB	00H
	DB	00H
	DB	01bH
	DB	00H
	DB	00H
	DB	00H
	DB	09H
	DB	00H
	DB	00H
	DB	00H
	DB	09H
	DB	00H
	DB	00H
	DB	00H
	DB	01bH
	DB	00H
	DB	03cH
	DB	0ffH
	DB	0ffH
	DB	00H
	DB	03cH
	DB	0ffH
	DB	0ffH
	DB	00H
	DB	03cH
	DB	0ffH
	DB	0ffH
	DB	00H
	DB	00H
	DB	00H
	DB	01bH
	DB	00H
	DB	00H
	DB	00H
	DB	09H
	DB	00H
	DB	00H
	DB	00H
	DB	09H
	DB	00H
	DB	00H
	DB	00H
	DB	01bH
	DB	00H
	DB	03cH
	DB	0ffH
	DB	0ffH
	DB	00H
	DB	03cH
	DB	0ffH
	DB	0ffH
	DB	00H
	DB	03cH
	DB	0ffH
	DB	0ffH
	DB	00H
	DB	00H
	DB	00H
	DB	01bH
	DB	00H
	DB	00H
	DB	00H
	DB	09H
	DB	00H
	DB	00H
	DB	00H
	DB	09H
	DB	00H
	DB	00H
	DB	00H
	DB	01bH
	DB	00H
	DB	03cH
	DB	0ffH
	DB	0ffH
	DB	00H
	DB	03cH
	DB	0ffH
	DB	0ffH
	DB	00H
	DB	03cH
	DB	0ffH
	DB	0ffH
	DB	00H
	DB	00H
	DB	00H
	DB	01bH
	DB	00H
	DB	00H
	DB	00H
	DB	09H
	DB	00H
	DB	00H
	DB	00H
	DB	09H
	DB	00H
	DB	00H
	DB	00H
	DB	01bH
	DB	00H
	DB	03cH
	DB	0ffH
	DB	0ffH
	DB	00H
	DB	03cH
	DB	0ffH
	DB	0ffH
	DB	00H
	DB	03cH
	DB	0ffH
	DB	0ffH
	DB	00H
	DB	00H
	DB	00H
	DB	01bH
	DB	00H
	DB	00H
	DB	00H
	DB	09H
	DB	00H
	DB	0eH
	DB	03bH
	DB	0dH
	DB	00H
	DB	036H
	DB	0e7H
	DB	092H
	DB	00H
	DB	03cH
	DB	0ffH
	DB	0ffH
	DB	00H
	DB	03cH
	DB	0ffH
	DB	0ffH
	DB	00H
	DB	03cH
	DB	0ffH
	DB	0ffH
	DB	00H
	DB	034H
	DB	0dfH
	DB	080H
	DB	00H
	DB	00H
	DB	00H
	DB	0aH
	DB	00H
	DB	039H
	DB	0f3H
	DB	08fH
	DB	00H
	DB	03cH
	DB	0ffH
	DB	0ffH
	DB	00H
	DB	03cH
	DB	0ffH
	DB	0ffH
	DB	00H
	DB	03cH
	DB	0ffH
	DB	0ffH
	DB	00H
	DB	03cH
	DB	0ffH
	DB	0ffH
	DB	00H
	DB	03cH
	DB	0ffH
	DB	0ffH
	DB	00H
	DB	038H
	DB	0edH
	DB	072H
	DB	00H
	DB	03cH
	DB	0feH
	DB	0f8H
	DB	00H
	DB	03cH
	DB	0ffH
	DB	0ffH
	DB	084H
	DB	0a1H
	DB	0ffH
	DB	0ffH
	DB	0f0H
	DB	0f4H
	DB	0ffH
	DB	0ffH
	DB	07fH
	DB	09dH
	DB	0ffH
	DB	0ffH
	DB	00H
	DB	03cH
	DB	0ffH
	DB	0ffH
	DB	00H
	DB	03cH
	DB	0fdH
	DB	0e6H
	DB	00H
	DB	03cH
	DB	0ffH
	DB	0ffH
	DB	00H
	DB	03cH
	DB	0ffH
	DB	0ffH
	DB	0f3H
	DB	0f6H
	DB	0ffH
	DB	0ffH
	DB	0ffH
	DB	0ffH
	DB	0ffH
	DB	0ffH
	DB	0f3H
	DB	0f6H
	DB	0ffH
	DB	0ffH
	DB	00H
	DB	03cH
	DB	0ffH
	DB	0ffH
	DB	00H
	DB	03cH
	DB	0ffH
	DB	0ffH
	DB	00H
	DB	03cH
	DB	0fdH
	DB	0f9H
	DB	00H
	DB	03cH
	DB	0ffH
	DB	0ffH
	DB	085H
	DB	0a2H
	DB	0ffH
	DB	0ffH
	DB	0f3H
	DB	0f6H
	DB	0ffH
	DB	0ffH
	DB	084H
	DB	0a1H
	DB	0ffH
	DB	0ffH
	DB	00H
	DB	03cH
	DB	0ffH
	DB	0ffH
	DB	00H
	DB	03bH
	DB	0faH
	DB	0e9H
	DB	00H
	DB	033H
	DB	0d7H
	DB	0a1H
	DB	00H
	DB	03cH
	DB	0ffH
	DB	0ffH
	DB	00H
	DB	03cH
	DB	0ffH
	DB	0ffH
	DB	00H
	DB	03cH
	DB	0ffH
	DB	0ffH
	DB	00H
	DB	03cH
	DB	0ffH
	DB	0ffH
	DB	00H
	DB	03cH
	DB	0ffH
	DB	0ffH
	DB	00H
	DB	02fH
	DB	0c8H
	DB	087H
	DB	00H
	DB	04H
	DB	0fH
	DB	033H
	DB	00H
	DB	030H
	DB	0ceH
	DB	0a7H
	DB	00H
	DB	03cH
	DB	0ffH
	DB	0ffH
	DB	00H
	DB	03cH
	DB	0ffH
	DB	0ffH
	DB	00H
	DB	03cH
	DB	0ffH
	DB	0ffH
	DB	00H
	DB	02dH
	DB	0c0H
	DB	095H
	DB	00H
	DB	00H
	DB	00H
	DB	02eH
	DB	00H
	DB	00H
	DB	00H
	DB	026H
	DB	00H
	DB	0dH
	DB	036H
	DB	047H
	DB	00H
	DB	03cH
	DB	0ffH
	DB	0ffH
	DB	00H
	DB	03cH
	DB	0ffH
	DB	0ffH
	DB	00H
	DB	03cH
	DB	0ffH
	DB	0ffH
	DB	00H
	DB	00H
	DB	00H
	DB	038H
	DB	00H
	DB	00H
	DB	00H
	DB	023H
	DB	00H
	DB	00H
	DB	00H
	DB	019H
	DB	00H
	DB	010H
	DB	042H
	DB	03aH
	DB	00H
	DB	03cH
	DB	0ffH
	DB	0ffH
	DB	00H
	DB	03cH
	DB	0ffH
	DB	0ffH
	DB	00H
	DB	03cH
	DB	0ffH
	DB	0ffH
	DB	00H
	DB	00H
	DB	00H
	DB	02cH
	DB	00H
	DB	00H
	DB	00H
	DB	017H
	DB	00H
	DB	00H
	DB	00H
	DB	010H
	DB	00H
	DB	012H
	DB	04eH
	DB	031H
	DB	00H
	DB	03cH
	DB	0ffH
	DB	0ffH
	DB	00H
	DB	03cH
	DB	0ffH
	DB	0ffH
	DB	00H
	DB	03cH
	DB	0ffH
	DB	0ffH
	DB	00H
	DB	00H
	DB	00H
	DB	022H
	DB	00H
	DB	00H
	DB	00H
	DB	0eH
	DB	00H
	DB	00H
	DB	00H
	DB	0bH
	DB	00H
	DB	014H
	DB	057H
	DB	02cH
	DB	00H
	DB	03cH
	DB	0ffH
	DB	0ffH
	DB	00H
	DB	03cH
	DB	0ffH
	DB	0ffH
	DB	00H
	DB	03cH
	DB	0ffH
	DB	0ffH
	DB	00H
	DB	00H
	DB	00H
	DB	01dH
	DB	00H
	DB	00H
	DB	00H
	DB	0aH
	DB	00H
	DB	00H
	DB	00H
	DB	0aH
	DB	00H
	DB	015H
	DB	05bH
	DB	02aH
	DB	00H
	DB	03cH
	DB	0ffH
	DB	0ffH
	DB	00H
	DB	03cH
	DB	0ffH
	DB	0ffH
	DB	00H
	DB	03cH
	DB	0ffH
	DB	0ffH
	DB	00H
	DB	00H
	DB	00H
	DB	01bH
	DB	00H
	DB	00H
	DB	00H
	DB	09H
	DB	00H
	DB	00H
	DB	00H
	DB	0aH
	DB	00H
	DB	015H
	DB	05bH
	DB	02aH
	DB	00H
	DB	03cH
	DB	0ffH
	DB	0ffH
	DB	00H
	DB	03cH
	DB	0ffH
	DB	0ffH
	DB	00H
	DB	03cH
	DB	0ffH
	DB	0ffH
	DB	00H
	DB	00H
	DB	00H
	DB	01bH
	DB	00H
	DB	00H
	DB	00H
	DB	09H
	DB	00H
	DB	00H
	DB	00H
	DB	0aH
	DB	00H
	DB	015H
	DB	05bH
	DB	02aH
	DB	00H
	DB	03cH
	DB	0ffH
	DB	0ffH
	DB	00H
	DB	03cH
	DB	0ffH
	DB	0ffH
	DB	00H
	DB	03cH
	DB	0ffH
	DB	0ffH
	DB	00H
	DB	00H
	DB	00H
	DB	01bH
	DB	00H
	DB	00H
	DB	00H
	DB	09H
	DB	00H
	DB	00H
	DB	00H
	DB	0aH
	DB	00H
	DB	015H
	DB	05bH
	DB	02aH
	DB	00H
	DB	03cH
	DB	0ffH
	DB	0ffH
	DB	00H
	DB	03cH
	DB	0ffH
	DB	0ffH
	DB	00H
	DB	03cH
	DB	0ffH
	DB	0ffH
	DB	00H
	DB	00H
	DB	00H
	DB	01bH
	DB	00H
	DB	00H
	DB	00H
	DB	09H
	DB	00H
	DB	00H
	DB	00H
	DB	0aH
	DB	00H
	DB	015H
	DB	05bH
	DB	02aH
	DB	00H
	DB	03cH
	DB	0ffH
	DB	0ffH
	DB	00H
	DB	03cH
	DB	0ffH
	DB	0ffH
	DB	00H
	DB	03cH
	DB	0ffH
	DB	0ffH
	DB	00H
	DB	00H
	DB	00H
	DB	01bH
	DB	00H
	DB	00H
	DB	00H
	DB	09H
	DB	00H
	DB	00H
	DB	00H
	DB	0aH
	DB	00H
	DB	015H
	DB	05bH
	DB	02aH
	DB	00H
	DB	03cH
	DB	0ffH
	DB	0ffH
	DB	00H
	DB	03cH
	DB	0ffH
	DB	0ffH
	DB	00H
	DB	03cH
	DB	0ffH
	DB	0ffH
	DB	00H
	DB	00H
	DB	00H
	DB	01bH
	DB	00H
	DB	00H
	DB	00H
	DB	09H
	DB	00H
	DB	00H
	DB	00H
	DB	0aH
	DB	00H
	DB	015H
	DB	05bH
	DB	02aH
	DB	00H
	DB	03cH
	DB	0ffH
	DB	0ffH
	DB	00H
	DB	03cH
	DB	0ffH
	DB	0ffH
	DB	00H
	DB	03cH
	DB	0ffH
	DB	0ffH
	DB	00H
	DB	00H
	DB	00H
	DB	01bH
	DB	00H
	DB	00H
	DB	00H
	DB	09H
	DB	00H
	DB	00H
	DB	00H
	DB	0aH
	DB	00H
	DB	015H
	DB	05bH
	DB	02aH
	DB	00H
	DB	03cH
	DB	0ffH
	DB	0ffH
	DB	00H
	DB	03cH
	DB	0ffH
	DB	0ffH
	DB	00H
	DB	03cH
	DB	0ffH
	DB	0ffH
	DB	00H
	DB	00H
	DB	00H
	DB	01bH
	DB	00H
	DB	00H
	DB	00H
	DB	09H
	DB	00H
	DB	00H
	DB	00H
	DB	0aH
	DB	00H
	DB	015H
	DB	05bH
	DB	02aH
	DB	00H
	DB	03cH
	DB	0ffH
	DB	0ffH
	DB	00H
	DB	03cH
	DB	0ffH
	DB	0ffH
	DB	00H
	DB	03cH
	DB	0ffH
	DB	0ffH
	DB	00H
	DB	00H
	DB	00H
	DB	01bH
	DB	00H
	DB	00H
	DB	00H
	DB	09H
	DB	00H
	DB	00H
	DB	00H
	DB	0aH
	DB	00H
	DB	00H
	DB	00H
	DB	01cH
	DB	00H
	DB	032H
	DB	0d5H
	DB	09fH
	DB	00H
	DB	03bH
	DB	0fcH
	DB	0f7H
	DB	00H
	DB	033H
	DB	0d7H
	DB	09eH
	DB	00H
	DB	00H
	DB	00H
	DB	01aH
	DB	00H
	DB	00H
	DB	00H
	DB	09H
	DB	00H
	DB	00H
	DB	00H
	DB	08H
	DB	00H
	DB	00H
	DB	00H
	DB	017H
	DB	00H
	DB	00H
	DB	00H
	DB	02dH
	DB	00H
	DB	00H
	DB	00H
	DB	035H
	DB	00H
	DB	00H
	DB	00H
	DB	02dH
	DB	00H
	DB	00H
	DB	00H
	DB	016H
	DB	00H
	DB	00H
	DB	00H
	DB	07H
	DB	00H
	DB	00H
	DB	00H
	DB	05H
	DB	00H
	DB	00H
	DB	00H
	DB	010H
	DB	00H
	DB	00H
	DB	00H
	DB	01fH
	DB	00H
	DB	00H
	DB	00H
	DB	024H
	DB	00H
	DB	00H
	DB	00H
	DB	01eH
	DB	00H
	DB	00H
	DB	00H
	DB	0fH
	DB	00H
	DB	00H
	DB	00H
	DB	05H
CONST	ENDS
END
